TN:
SF:/home/redmonster/Desktop/прога/2_sem/second_year/2.3laba/1task/src/mainHeader.cpp
FNL:0,107,130
FNA:0,203,_ZN6CBTree6insertEi
FNL:1,133,164
FNA:1,14,_ZN6CBTree6is_CBTEv
FNL:2,15,17
FNA:2,126,_ZN5ArrayD2Ev
FNL:3,167,175
FNA:3,63,_ZN6CBTree10find_valueEP9tree_nodei
FNL:4,177,183
FNA:4,14,_ZN6CBTree9get_valueEi
FNL:5,186,216
FNA:5,14,_ZN6CBTree10find_indexEi
FNL:6,19,30
FNA:6,35,_ZN5Array3addEiNSt7__cxx1112basic_stringIcSt11char_traitsIcESaIcEEE
FNL:7,219,228
FNA:7,189,_ZN6CBTree9print_CBTEP9tree_nodei
FNL:8,231,237
FNA:8,28,_ZN6CBTree7displayEv
FNL:9,240,247
FNA:9,77,_ZN6CBTree5clearERP9tree_node
FNL:10,250,263
FNA:10,14,_ZN6CBTree14load_from_fileERKNSt7__cxx1112basic_stringIcSt11char_traitsIcESaIcEEE
FNL:11,266,286
FNA:11,14,_ZN6CBTree12save_to_fileERKNSt7__cxx1112basic_stringIcSt11char_traitsIcESaIcEEE
FNL:12,288,297
FNA:12,21,_ZN16DoublyLinkedList9addToHeadENSt7__cxx1112basic_stringIcSt11char_traitsIcESaIcEEE
FNL:13,299,308
FNA:13,168,_ZN16DoublyLinkedList9addToTailENSt7__cxx1112basic_stringIcSt11char_traitsIcESaIcEEE
FNL:14,310,322
FNA:14,7,_ZN16DoublyLinkedList14removeFromHeadEv
FNL:15,32,39
FNA:15,133,_ZN5Array11addToTheEndENSt7__cxx1112basic_stringIcSt11char_traitsIcESaIcEEE
FNL:16,324,336
FNA:16,7,_ZN16DoublyLinkedList14removeFromTailEv
FNL:17,338,355
FNA:17,7,_ZN16DoublyLinkedList13removeByValueENSt7__cxx1112basic_stringIcSt11char_traitsIcESaIcEEE
FNL:18,357,366
FNA:18,14,_ZN16DoublyLinkedList6searchENSt7__cxx1112basic_stringIcSt11char_traitsIcESaIcEEE
FNL:19,368,375
FNA:19,49,_ZN16DoublyLinkedList5printEv
FNL:20,377,389
FNA:20,7,_ZN16DoublyLinkedList10saveToFileERKNSt7__cxx1112basic_stringIcSt11char_traitsIcESaIcEEE
FNL:21,391,402
FNA:21,7,_ZN16DoublyLinkedList12loadFromFileERKNSt7__cxx1112basic_stringIcSt11char_traitsIcESaIcEEE
FNL:22,403,409
FNA:22,56,_ZN9HashTableC2Ei
FNL:23,41,51
FNA:23,21,_ZN5Array6removeEi
FNL:24,412,415
FNA:24,56,_ZN9HashTableD2Ev
FNL:25,418,436
FNA:25,119,_ZN9HashTable4hsetERKNSt7__cxx1112basic_stringIcSt11char_traitsIcESaIcEEES7_
FNL:26,440,451
FNA:26,70,_ZNK9HashTable4hgetERKNSt7__cxx1112basic_stringIcSt11char_traitsIcESaIcEEE
FNL:27,454,476
FNA:27,7,_ZN9HashTable4hdelERKNSt7__cxx1112basic_stringIcSt11char_traitsIcESaIcEEE
FNL:28,479,489
FNA:28,70,_ZN9HashTable5clearEv
FNL:29,492,498
FNA:29,196,_ZNK9HashTable12hashFunctionERKNSt7__cxx1112basic_stringIcSt11char_traitsIcESaIcEEE
FNL:30,501,513
FNA:30,14,_ZNK9HashTable6hprintEv
FNL:31,516,533
FNA:31,7,_ZN9HashTable12loadFromFileERKNSt7__cxx1112basic_stringIcSt11char_traitsIcESaIcEEE
FNL:32,53,59
FNA:32,7,_ZN5Array7replaceEiNSt7__cxx1112basic_stringIcSt11char_traitsIcESaIcEEE
FNL:33,536,550
FNA:33,7,_ZN9HashTable10saveToFileERKNSt7__cxx1112basic_stringIcSt11char_traitsIcESaIcEEE
FNL:34,552,561
FNA:34,105,_ZN5Queue4pushENSt7__cxx1112basic_stringIcSt11char_traitsIcESaIcEEE
FNL:35,563,575
FNA:35,14,_ZN5Queue3popEv
FNL:36,577,584
FNA:36,28,_ZN5Queue5printEv
FNL:37,585,597
FNA:37,7,_ZN5Queue10saveToFileERKNSt7__cxx1112basic_stringIcSt11char_traitsIcESaIcEEE
FNL:38,599,610
FNA:38,7,_ZN5Queue12loadFromFileERKNSt7__cxx1112basic_stringIcSt11char_traitsIcESaIcEEE
FNL:39,61,66
FNA:39,7,_ZN5Array5printEv
FNL:40,612,617
FNA:40,21,_ZN16SinglyLinkedList9addToHeadENSt7__cxx1112basic_stringIcSt11char_traitsIcESaIcEEE
FNL:41,619,631
FNA:41,168,_ZN16SinglyLinkedList9addToTailENSt7__cxx1112basic_stringIcSt11char_traitsIcESaIcEEE
FNL:42,633,641
FNA:42,7,_ZN16SinglyLinkedList10removeHeadEv
FNL:43,643,659
FNA:43,7,_ZN16SinglyLinkedList10removeTailEv
FNL:44,661,680
FNA:44,7,_ZN16SinglyLinkedList13removeByValueENSt7__cxx1112basic_stringIcSt11char_traitsIcESaIcEEE
FNL:45,68,70
FNA:45,7,_ZN5Array6lengthEv
FNL:46,682,691
FNA:46,14,_ZN16SinglyLinkedList6searchENSt7__cxx1112basic_stringIcSt11char_traitsIcESaIcEEE
FNL:47,693,700
FNA:47,49,_ZN16SinglyLinkedList5printEv
FNL:48,702,714
FNA:48,7,_ZN16SinglyLinkedList10saveToFileERKNSt7__cxx1112basic_stringIcSt11char_traitsIcESaIcEEE
FNL:49,717,728
FNA:49,7,_ZN16SinglyLinkedList12loadFromFileERKNSt7__cxx1112basic_stringIcSt11char_traitsIcESaIcEEE
FNL:50,72,82
FNA:50,14,_ZN5Array10saveToFileERKNSt7__cxx1112basic_stringIcSt11char_traitsIcESaIcEEE
FNL:51,730,735
FNA:51,105,_ZN5Stack4pushENSt7__cxx1112basic_stringIcSt11char_traitsIcESaIcEEE
FNL:52,737,746
FNA:52,14,_ZN5Stack3popEv
FNL:53,748,755
FNA:53,28,_ZN5Stack5printEv
FNL:54,756,768
FNA:54,7,_ZN5Stack10saveToFileERKNSt7__cxx1112basic_stringIcSt11char_traitsIcESaIcEEE
FNL:55,770,781
FNA:55,7,_ZN5Stack12loadFromFileERKNSt7__cxx1112basic_stringIcSt11char_traitsIcESaIcEEE
FNL:56,84,97
FNA:56,14,_ZN5Array12loadFromFileERKNSt7__cxx1112basic_stringIcSt11char_traitsIcESaIcEEE
FNL:57,9,13
FNA:57,126,_ZN5ArrayC2Ei
FNL:58,99,105
FNA:58,63,_ZN5Array3getB5cxx11Ei
FNF:59
FNH:59
DA:9,126
DA:10,126
DA:11,126
DA:12,1057
DA:13,126
DA:15,126
DA:16,1057
DA:17,126
DA:19,35
DA:20,35
DA:21,7
DA:22,7
DA:25,28
DA:26,0
DA:28,28
DA:29,28
DA:32,133
DA:33,133
DA:34,7
DA:35,7
DA:37,126
DA:38,126
DA:41,21
DA:42,21
DA:43,7
DA:44,7
DA:47,21
DA:48,7
DA:50,14
DA:53,7
DA:54,7
DA:55,0
DA:56,0
DA:58,7
DA:61,7
DA:62,21
DA:63,14
DA:65,7
DA:66,7
DA:68,7
DA:69,7
DA:72,14
DA:73,14
DA:74,14
DA:75,7
DA:76,7
DA:78,21
DA:79,14
DA:81,7
DA:82,14
DA:84,14
DA:85,14
DA:86,14
DA:87,7
DA:88,7
DA:90,7
DA:91,7
DA:92,21
DA:93,14
DA:94,14
DA:96,7
DA:97,14
DA:99,63
DA:100,63
DA:101,7
DA:102,14
DA:104,56
DA:107,203
DA:108,203
DA:109,203
DA:110,56
DA:111,203
DA:113,147
DA:114,147
DA:115,182
DA:116,182
DA:117,182
DA:118,77
DA:119,77
DA:121,105
DA:123,105
DA:124,70
DA:125,70
DA:127,35
DA:133,14
DA:134,14
DA:135,7
DA:136,7
DA:139,7
DA:140,7
DA:141,7
DA:142,42
DA:143,35
DA:145,35
DA:146,14
DA:147,0
DA:149,14
DA:151,21
DA:154,35
DA:155,14
DA:156,0
DA:158,14
DA:160,21
DA:163,7
DA:167,63
DA:168,63
DA:169,28
DA:171,35
DA:172,7
DA:174,28
DA:177,14
DA:178,14
DA:179,0
DA:180,0
DA:182,14
DA:186,14
DA:187,14
DA:188,0
DA:189,7
DA:192,14
DA:193,0
DA:194,0
DA:197,14
DA:198,14
DA:199,14
DA:201,42
DA:202,35
DA:203,35
DA:204,7
DA:205,7
DA:207,28
DA:208,28
DA:209,14
DA:211,28
DA:212,14
DA:215,7
DA:219,189
DA:220,189
DA:221,84
DA:222,168
DA:223,84
DA:225,84
DA:226,84
DA:228,189
DA:231,28
DA:232,28
DA:233,7
DA:234,7
DA:236,21
DA:240,77
DA:241,77
DA:242,28
DA:243,28
DA:244,28
DA:245,28
DA:247,77
DA:250,14
DA:251,14
DA:252,14
DA:253,14
DA:254,7
DA:255,7
DA:259,42
DA:260,35
DA:262,7
DA:263,14
DA:266,14
DA:267,14
DA:268,14
DA:269,7
DA:270,7
DA:273,7
DA:274,7
DA:275,28
DA:276,21
DA:277,21
DA:278,21
DA:279,7
DA:281,21
DA:282,7
DA:285,7
DA:286,14
DA:288,21
DA:289,21
DA:290,21
DA:291,7
DA:293,14
DA:294,14
DA:295,14
DA:297,21
DA:299,168
DA:300,168
DA:301,168
DA:302,56
DA:304,112
DA:305,112
DA:306,112
DA:308,168
DA:310,7
DA:311,7
DA:312,0
DA:314,7
DA:315,7
DA:316,7
DA:317,7
DA:319,0
DA:321,7
DA:324,7
DA:325,7
DA:326,0
DA:328,7
DA:329,7
DA:330,7
DA:331,7
DA:333,0
DA:335,7
DA:338,7
DA:339,7
DA:340,14
DA:341,14
DA:342,7
DA:343,0
DA:344,7
DA:345,0
DA:347,7
DA:348,7
DA:349,7
DA:351,7
DA:353,7
DA:357,14
DA:358,14
DA:359,42
DA:360,35
DA:361,7
DA:363,28
DA:365,7
DA:368,49
DA:369,49
DA:370,175
DA:371,126
DA:372,126
DA:374,49
DA:375,49
DA:377,7
DA:378,7
DA:379,7
DA:380,0
DA:381,0
DA:383,7
DA:384,28
DA:385,21
DA:386,21
DA:388,7
DA:389,7
DA:391,7
DA:392,7
DA:393,7
DA:394,7
DA:395,28
DA:396,21
DA:398,7
DA:399,7
DA:400,0
DA:402,7
DA:403,56
DA:404,56
DA:405,56
DA:406,616
DA:407,560
DA:409,56
DA:412,56
DA:413,56
DA:414,56
DA:415,56
DA:418,119
DA:419,119
DA:420,119
DA:423,119
DA:425,7
DA:426,7
DA:427,7
DA:429,0
DA:433,112
DA:434,112
DA:435,112
DA:440,70
DA:441,70
DA:442,70
DA:443,70
DA:444,42
DA:445,42
DA:446,42
DA:448,0
DA:450,28
DA:454,7
DA:455,7
DA:456,7
DA:457,7
DA:459,7
DA:460,0
DA:461,0
DA:464,7
DA:465,0
DA:466,0
DA:469,7
DA:470,7
DA:472,0
DA:475,7
DA:479,70
DA:480,770
DA:481,700
DA:482,805
DA:483,105
DA:484,105
DA:485,105
DA:487,700
DA:489,70
DA:492,196
DA:493,196
DA:494,980
DA:495,784
DA:497,196
DA:501,14
DA:502,154
DA:503,140
DA:504,140
DA:505,35
DA:506,70
DA:507,35
DA:508,35
DA:510,35
DA:513,14
DA:516,7
DA:517,7
DA:518,7
DA:519,7
DA:521,7
DA:522,21
DA:523,14
DA:524,14
DA:525,14
DA:526,14
DA:527,14
DA:529,7
DA:530,7
DA:531,0
DA:533,7
DA:536,7
DA:537,7
DA:538,7
DA:539,77
DA:540,70
DA:541,84
DA:542,14
DA:543,14
DA:546,7
DA:548,0
DA:550,7
DA:552,105
DA:553,105
DA:554,105
DA:555,35
DA:557,70
DA:558,70
DA:560,105
DA:561,105
DA:563,14
DA:564,14
DA:565,7
DA:566,7
DA:568,7
DA:569,7
DA:570,7
DA:571,0
DA:573,7
DA:574,7
DA:577,28
DA:578,28
DA:579,105
DA:580,77
DA:581,77
DA:583,28
DA:584,28
DA:585,7
DA:586,7
DA:587,7
DA:588,0
DA:589,0
DA:591,7
DA:592,28
DA:593,21
DA:594,21
DA:596,7
DA:597,7
DA:599,7
DA:600,7
DA:601,7
DA:602,0
DA:603,0
DA:605,7
DA:606,28
DA:607,21
DA:609,7
DA:610,7
DA:612,21
DA:613,21
DA:614,21
DA:615,21
DA:616,21
DA:617,21
DA:619,168
DA:620,168
DA:621,168
DA:622,56
DA:624,112
DA:625,168
DA:626,56
DA:628,112
DA:630,168
DA:631,168
DA:633,7
DA:634,7
DA:635,0
DA:637,7
DA:638,7
DA:639,7
DA:640,7
DA:643,7
DA:644,7
DA:645,0
DA:647,7
DA:648,0
DA:649,0
DA:651,7
DA:652,14
DA:653,7
DA:655,7
DA:656,7
DA:658,7
DA:661,7
DA:662,7
DA:663,0
DA:665,7
DA:666,0
DA:667,0
DA:669,7
DA:670,7
DA:671,7
DA:672,7
DA:673,7
DA:674,7
DA:675,7
DA:676,7
DA:678,0
DA:682,14
DA:683,14
DA:684,42
DA:685,35
DA:686,7
DA:688,28
DA:690,7
DA:693,49
DA:694,49
DA:695,175
DA:696,126
DA:697,126
DA:699,49
DA:700,49
DA:702,7
DA:703,7
DA:704,7
DA:705,7
DA:706,28
DA:707,21
DA:708,21
DA:710,7
DA:712,0
DA:714,7
DA:717,7
DA:718,7
DA:719,7
DA:720,7
DA:721,28
DA:722,21
DA:724,7
DA:725,7
DA:726,0
DA:728,7
DA:730,105
DA:731,105
DA:732,105
DA:733,105
DA:734,105
DA:735,105
DA:737,14
DA:738,14
DA:739,7
DA:740,7
DA:742,7
DA:743,7
DA:744,7
DA:745,7
DA:748,28
DA:749,28
DA:750,105
DA:751,77
DA:752,77
DA:754,28
DA:755,28
DA:756,7
DA:757,7
DA:758,7
DA:759,0
DA:760,0
DA:762,7
DA:763,28
DA:764,21
DA:765,21
DA:767,7
DA:768,7
DA:770,7
DA:771,7
DA:772,7
DA:773,0
DA:774,0
DA:776,7
DA:777,28
DA:778,21
DA:780,7
DA:781,7
LF:530
LH:483
end_of_record
TN:
SF:/home/redmonster/Desktop/прога/2_sem/second_year/2.3laba/1task/src/mainHeader.hpp
FNL:0,100,101
FNA:0,112,_ZN8HashNodeC2ERKNSt7__cxx1112basic_stringIcSt11char_traitsIcESaIcEEES7_PS_
FNL:1,127,127
FNA:1,63,_ZN6CBTreeC2Ev
FNL:2,32,32
FNA:2,63,_ZN16SinglyLinkedListC2Ev
FNL:3,51,51
FNA:3,63,_ZN16DoublyLinkedListC2Ev
FNL:4,70,70
FNA:4,42,_ZN5StackC2Ev
FNL:5,85,85
FNA:5,42,_ZN5QueueC2Ev
FNF:6
FNH:6
DA:32,63
DA:51,63
DA:70,42
DA:85,42
DA:100,112
DA:101,112
DA:127,63
LF:7
LH:7
end_of_record
TN:
SF:/home/redmonster/Desktop/прога/2_sem/second_year/2.3laba/1task/src/node.hpp
FNL:0,11,13
FNA:0,399,_ZN4NodeC2ERKNSt7__cxx1112basic_stringIcSt11char_traitsIcESaIcEEEPS_
FNL:1,22,24
FNA:1,189,_ZN10DoublyNodeC2ERKNSt7__cxx1112basic_stringIcSt11char_traitsIcESaIcEEEPS_S8_
FNL:2,33,33
FNA:2,203,_ZN9tree_nodeC2Ei
FNL:3,48,48
FNA:3,175,_ZN10queue_treeC2Ev
FNL:4,50,52
FNA:4,567,_ZN10queue_tree8is_emptyEv
FNL:5,54,67
FNA:5,385,_ZN10queue_tree7enqueueEP9tree_node
FNL:6,69,86
FNA:6,273,_ZN10queue_tree7dequeueEv
FNF:7
FNH:7
DA:11,399
DA:12,399
DA:13,399
DA:22,189
DA:23,189
DA:24,189
DA:33,203
DA:48,175
DA:50,567
DA:51,567
DA:54,385
DA:55,385
DA:56,385
DA:57,385
DA:59,385
DA:60,294
DA:62,91
DA:63,91
DA:66,385
DA:67,385
DA:69,273
DA:71,273
DA:72,0
DA:75,273
DA:76,273
DA:77,273
DA:79,273
DA:80,196
DA:83,273
DA:84,273
DA:85,273
LF:31
LH:30
end_of_record
TN:
SF:/home/redmonster/Desktop/прога/2_sem/second_year/2.3laba/1task/tests/test.cpp
FNL:0,1004,1016
FNA:0,7,_ZN32SinglyLinkedListTest_Search_Test8TestBodyEv
FNA:0,7,_ZN32SinglyLinkedListTest_Search_TestC2Ev
FNA:0,7,_ZN32SinglyLinkedListTest_Search_TestD0Ev
FNA:0,7,_ZN32SinglyLinkedListTest_Search_TestD2Ev
FNL:1,1019,1036
FNA:1,7,_ZN31SinglyLinkedListTest_Print_Test8TestBodyEv
FNA:1,7,_ZN31SinglyLinkedListTest_Print_TestC2Ev
FNA:1,7,_ZN31SinglyLinkedListTest_Print_TestD0Ev
FNA:1,7,_ZN31SinglyLinkedListTest_Print_TestD2Ev
FNL:2,1039,1057
FNA:2,7,_ZN36SinglyLinkedListTest_SaveToFile_Test8TestBodyEv
FNA:2,7,_ZN36SinglyLinkedListTest_SaveToFile_TestC2Ev
FNA:2,7,_ZN36SinglyLinkedListTest_SaveToFile_TestD0Ev
FNA:2,7,_ZN36SinglyLinkedListTest_SaveToFile_TestD2Ev
FNL:3,105,122
FNA:3,7,_ZN29ArrayTest_AddToFullArray_Test8TestBodyEv
FNA:3,7,_ZN29ArrayTest_AddToFullArray_TestC2Ev
FNA:3,7,_ZN29ArrayTest_AddToFullArray_TestD0Ev
FNA:3,7,_ZN29ArrayTest_AddToFullArray_TestD2Ev
FNL:4,1060,1083
FNA:4,7,_ZN38SinglyLinkedListTest_LoadFromFile_Test8TestBodyEv
FNA:4,7,_ZN38SinglyLinkedListTest_LoadFromFile_TestC2Ev
FNA:4,7,_ZN38SinglyLinkedListTest_LoadFromFile_TestD0Ev
FNA:4,7,_ZN38SinglyLinkedListTest_LoadFromFile_TestD2Ev
FNL:5,1088,1105
FNA:5,7,_ZN19StackTest_Push_Test8TestBodyEv
FNA:5,7,_ZN19StackTest_Push_TestC2Ev
FNA:5,7,_ZN19StackTest_Push_TestD0Ev
FNA:5,7,_ZN19StackTest_Push_TestD2Ev
FNL:6,1108,1126
FNA:6,7,_ZN18StackTest_Pop_Test8TestBodyEv
FNA:6,7,_ZN18StackTest_Pop_TestC2Ev
FNA:6,7,_ZN18StackTest_Pop_TestD0Ev
FNA:6,7,_ZN18StackTest_Pop_TestD2Ev
FNL:7,1129,1142
FNA:7,7,_ZN28StackTest_PopEmptyStack_Test8TestBodyEv
FNA:7,7,_ZN28StackTest_PopEmptyStack_TestC2Ev
FNA:7,7,_ZN28StackTest_PopEmptyStack_TestD0Ev
FNA:7,7,_ZN28StackTest_PopEmptyStack_TestD2Ev
FNL:8,1145,1163
FNA:8,7,_ZN25StackTest_SaveToFile_Test8TestBodyEv
FNA:8,7,_ZN25StackTest_SaveToFile_TestC2Ev
FNA:8,7,_ZN25StackTest_SaveToFile_TestD0Ev
FNA:8,7,_ZN25StackTest_SaveToFile_TestD2Ev
FNL:9,1166,1189
FNA:9,7,_ZN27StackTest_LoadFromFile_Test8TestBodyEv
FNA:9,7,_ZN27StackTest_LoadFromFile_TestC2Ev
FNA:9,7,_ZN27StackTest_LoadFromFile_TestD0Ev
FNA:9,7,_ZN27StackTest_LoadFromFile_TestD2Ev
FNL:10,1192,1209
FNA:10,7,_ZN20StackTest_Print_Test8TestBodyEv
FNA:10,7,_ZN20StackTest_Print_TestC2Ev
FNA:10,7,_ZN20StackTest_Print_TestD0Ev
FNA:10,7,_ZN20StackTest_Print_TestD2Ev
FNL:11,1214,1217
FNA:11,7,main
FNL:12,125,140
FNA:12,7,_ZN41ArrayTest_AddInvalidIndexOrFullArray_Test8TestBodyEv
FNA:12,7,_ZN41ArrayTest_AddInvalidIndexOrFullArray_TestC2Ev
FNA:12,7,_ZN41ArrayTest_AddInvalidIndexOrFullArray_TestD0Ev
FNA:12,7,_ZN41ArrayTest_AddInvalidIndexOrFullArray_TestD2Ev
FNL:13,14,18
FNA:13,7,_ZN39ArrayTest_ConstructorAndDestructor_Test8TestBodyEv
FNA:13,7,_ZN39ArrayTest_ConstructorAndDestructor_TestC2Ev
FNA:13,7,_ZN39ArrayTest_ConstructorAndDestructor_TestD0Ev
FNA:13,7,_ZN39ArrayTest_ConstructorAndDestructor_TestD2Ev
FNL:14,143,159
FNA:14,7,_ZN33ArrayTest_RemoveInvalidIndex_Test8TestBodyEv
FNA:14,7,_ZN33ArrayTest_RemoveInvalidIndex_TestC2Ev
FNA:14,7,_ZN33ArrayTest_RemoveInvalidIndex_TestD0Ev
FNA:14,7,_ZN33ArrayTest_RemoveInvalidIndex_TestD2Ev
FNL:15,162,172
FNA:15,7,_ZN37ArrayTest_RemoveAndShiftElements_Test8TestBodyEv
FNA:15,7,_ZN37ArrayTest_RemoveAndShiftElements_TestC2Ev
FNA:15,7,_ZN37ArrayTest_RemoveAndShiftElements_TestD0Ev
FNA:15,7,_ZN37ArrayTest_RemoveAndShiftElements_TestD2Ev
FNL:16,175,189
FNA:16,7,_ZN20ArrayTest_Print_Test8TestBodyEv
FNA:16,7,_ZN20ArrayTest_Print_TestC2Ev
FNA:16,7,_ZN20ArrayTest_Print_TestD0Ev
FNA:16,7,_ZN20ArrayTest_Print_TestD2Ev
FNL:17,192,207
FNA:17,7,_ZN30ArrayTest_SaveToFileError_Test8TestBodyEv
FNA:17,7,_ZN30ArrayTest_SaveToFileError_TestC2Ev
FNA:17,7,_ZN30ArrayTest_SaveToFileError_TestD0Ev
FNA:17,7,_ZN30ArrayTest_SaveToFileError_TestD2Ev
FNL:18,21,25
FNA:18,7,_ZN25ArrayTest_AddByIndex_Test8TestBodyEv
FNA:18,7,_ZN25ArrayTest_AddByIndex_TestC2Ev
FNA:18,7,_ZN25ArrayTest_AddByIndex_TestD0Ev
FNA:18,7,_ZN25ArrayTest_AddByIndex_TestD2Ev
FNL:19,210,224
FNA:19,7,_ZN32ArrayTest_LoadFromFileError_Test8TestBodyEv
FNA:19,7,_ZN32ArrayTest_LoadFromFileError_TestC2Ev
FNA:19,7,_ZN32ArrayTest_LoadFromFileError_TestD0Ev
FNA:19,7,_ZN32ArrayTest_LoadFromFileError_TestD2Ev
FNL:20,226,246
FNA:20,7,_ZN21CBTreeTest_IsCBT_Test8TestBodyEv
FNA:20,7,_ZN21CBTreeTest_IsCBT_TestC2Ev
FNA:20,7,_ZN21CBTreeTest_IsCBT_TestD0Ev
FNA:20,7,_ZN21CBTreeTest_IsCBT_TestD2Ev
FNL:21,249,263
FNA:21,7,_ZN24CBTreeTest_GetValue_Test8TestBodyEv
FNA:21,7,_ZN24CBTreeTest_GetValue_TestC2Ev
FNA:21,7,_ZN24CBTreeTest_GetValue_TestD0Ev
FNA:21,7,_ZN24CBTreeTest_GetValue_TestD2Ev
FNL:22,267,281
FNA:22,7,_ZN25CBTreeTest_FindIndex_Test8TestBodyEv
FNA:22,7,_ZN25CBTreeTest_FindIndex_TestC2Ev
FNA:22,7,_ZN25CBTreeTest_FindIndex_TestD0Ev
FNA:22,7,_ZN25CBTreeTest_FindIndex_TestD2Ev
FNL:23,28,33
FNA:23,7,_ZN40ArrayTest_AddToEnd_MultipleElements_Test8TestBodyEv
FNA:23,7,_ZN40ArrayTest_AddToEnd_MultipleElements_TestC2Ev
FNA:23,7,_ZN40ArrayTest_AddToEnd_MultipleElements_TestD0Ev
FNA:23,7,_ZN40ArrayTest_AddToEnd_MultipleElements_TestD2Ev
FNL:24,284,301
FNA:24,7,_ZN23CBTreeTest_Display_Test8TestBodyEv
FNA:24,7,_ZN23CBTreeTest_Display_TestC2Ev
FNA:24,7,_ZN23CBTreeTest_Display_TestD0Ev
FNA:24,7,_ZN23CBTreeTest_Display_TestD2Ev
FNL:25,303,325
FNA:25,7,_ZN28CBTreeTest_LoadFromFile_Test8TestBodyEv
FNA:25,7,_ZN28CBTreeTest_LoadFromFile_TestC2Ev
FNA:25,7,_ZN28CBTreeTest_LoadFromFile_TestD0Ev
FNA:25,7,_ZN28CBTreeTest_LoadFromFile_TestD2Ev
FNL:26,328,347
FNA:26,7,_ZN26CBTreeTest_SaveToFile_Test8TestBodyEv
FNA:26,7,_ZN26CBTreeTest_SaveToFile_TestC2Ev
FNA:26,7,_ZN26CBTreeTest_SaveToFile_TestD0Ev
FNA:26,7,_ZN26CBTreeTest_SaveToFile_TestD2Ev
FNL:27,348,360
FNA:27,7,_ZN33CBTreeTest_LoadFromFileError_Test8TestBodyEv
FNA:27,7,_ZN33CBTreeTest_LoadFromFileError_TestC2Ev
FNA:27,7,_ZN33CBTreeTest_LoadFromFileError_TestD0Ev
FNA:27,7,_ZN33CBTreeTest_LoadFromFileError_TestD2Ev
FNL:28,36,40
FNA:28,7,_ZN25ArrayTest_GetElement_Test8TestBodyEv
FNA:28,7,_ZN25ArrayTest_GetElement_TestC2Ev
FNA:28,7,_ZN25ArrayTest_GetElement_TestD0Ev
FNA:28,7,_ZN25ArrayTest_GetElement_TestD2Ev
FNL:29,363,380
FNA:29,7,_ZN31CBTreeTest_SaveToFileError_Test8TestBodyEv
FNA:29,7,_ZN31CBTreeTest_SaveToFileError_TestC2Ev
FNA:29,7,_ZN31CBTreeTest_SaveToFileError_TestD0Ev
FNA:29,7,_ZN31CBTreeTest_SaveToFileError_TestD2Ev
FNL:30,384,411
FNA:30,7,_ZN25CBTreeTest_ClearTree_Test8TestBodyEv
FNA:30,7,_ZN25CBTreeTest_ClearTree_TestC2Ev
FNA:30,7,_ZN25CBTreeTest_ClearTree_TestD0Ev
FNA:30,7,_ZN25CBTreeTest_ClearTree_TestD2Ev
FNL:31,413,430
FNA:31,7,_ZN35DoublyLinkedListTest_AddToHead_Test8TestBodyEv
FNA:31,7,_ZN35DoublyLinkedListTest_AddToHead_TestC2Ev
FNA:31,7,_ZN35DoublyLinkedListTest_AddToHead_TestD0Ev
FNA:31,7,_ZN35DoublyLinkedListTest_AddToHead_TestD2Ev
FNL:32,43,48
FNA:32,7,_ZN28ArrayTest_RemoveElement_Test8TestBodyEv
FNA:32,7,_ZN28ArrayTest_RemoveElement_TestC2Ev
FNA:32,7,_ZN28ArrayTest_RemoveElement_TestD0Ev
FNA:32,7,_ZN28ArrayTest_RemoveElement_TestD2Ev
FNL:33,433,450
FNA:33,7,_ZN35DoublyLinkedListTest_AddToTail_Test8TestBodyEv
FNA:33,7,_ZN35DoublyLinkedListTest_AddToTail_TestC2Ev
FNA:33,7,_ZN35DoublyLinkedListTest_AddToTail_TestD0Ev
FNA:33,7,_ZN35DoublyLinkedListTest_AddToTail_TestD2Ev
FNL:34,453,471
FNA:34,7,_ZN40DoublyLinkedListTest_RemoveFromHead_Test8TestBodyEv
FNA:34,7,_ZN40DoublyLinkedListTest_RemoveFromHead_TestC2Ev
FNA:34,7,_ZN40DoublyLinkedListTest_RemoveFromHead_TestD0Ev
FNA:34,7,_ZN40DoublyLinkedListTest_RemoveFromHead_TestD2Ev
FNL:35,474,492
FNA:35,7,_ZN40DoublyLinkedListTest_RemoveFromTail_Test8TestBodyEv
FNA:35,7,_ZN40DoublyLinkedListTest_RemoveFromTail_TestC2Ev
FNA:35,7,_ZN40DoublyLinkedListTest_RemoveFromTail_TestD0Ev
FNA:35,7,_ZN40DoublyLinkedListTest_RemoveFromTail_TestD2Ev
FNL:36,495,513
FNA:36,7,_ZN39DoublyLinkedListTest_RemoveByValue_Test8TestBodyEv
FNA:36,7,_ZN39DoublyLinkedListTest_RemoveByValue_TestC2Ev
FNA:36,7,_ZN39DoublyLinkedListTest_RemoveByValue_TestD0Ev
FNA:36,7,_ZN39DoublyLinkedListTest_RemoveByValue_TestD2Ev
FNL:37,51,56
FNA:37,7,_ZN29ArrayTest_ReplaceElement_Test8TestBodyEv
FNA:37,7,_ZN29ArrayTest_ReplaceElement_TestC2Ev
FNA:37,7,_ZN29ArrayTest_ReplaceElement_TestD0Ev
FNA:37,7,_ZN29ArrayTest_ReplaceElement_TestD2Ev
FNL:38,516,528
FNA:38,7,_ZN32DoublyLinkedListTest_Search_Test8TestBodyEv
FNA:38,7,_ZN32DoublyLinkedListTest_Search_TestC2Ev
FNA:38,7,_ZN32DoublyLinkedListTest_Search_TestD0Ev
FNA:38,7,_ZN32DoublyLinkedListTest_Search_TestD2Ev
FNL:39,531,548
FNA:39,7,_ZN31DoublyLinkedListTest_Print_Test8TestBodyEv
FNA:39,7,_ZN31DoublyLinkedListTest_Print_TestC2Ev
FNA:39,7,_ZN31DoublyLinkedListTest_Print_TestD0Ev
FNA:39,7,_ZN31DoublyLinkedListTest_Print_TestD2Ev
FNL:40,550,570
FNA:40,7,_ZN36DoublyLinkedListTest_SaveToFile_Test8TestBodyEv
FNA:40,7,_ZN36DoublyLinkedListTest_SaveToFile_TestC2Ev
FNA:40,7,_ZN36DoublyLinkedListTest_SaveToFile_TestD0Ev
FNA:40,7,_ZN36DoublyLinkedListTest_SaveToFile_TestD2Ev
FNL:41,573,595
FNA:41,7,_ZN38DoublyLinkedListTest_LoadFromFile_Test8TestBodyEv
FNA:41,7,_ZN38DoublyLinkedListTest_LoadFromFile_TestC2Ev
FNA:41,7,_ZN38DoublyLinkedListTest_LoadFromFile_TestD0Ev
FNA:41,7,_ZN38DoublyLinkedListTest_LoadFromFile_TestD2Ev
FNL:42,59,64
FNA:42,7,_ZN26ArrayTest_LengthCheck_Test8TestBodyEv
FNA:42,7,_ZN26ArrayTest_LengthCheck_TestC2Ev
FNA:42,7,_ZN26ArrayTest_LengthCheck_TestD0Ev
FNA:42,7,_ZN26ArrayTest_LengthCheck_TestD2Ev
FNL:43,599,618
FNA:43,7,_ZN23HashTableTest_HSet_Test8TestBodyEv
FNA:43,7,_ZN23HashTableTest_HSet_TestC2Ev
FNA:43,7,_ZN23HashTableTest_HSet_TestD0Ev
FNA:43,7,_ZN23HashTableTest_HSet_TestD2Ev
FNL:44,619,643
FNA:44,7,_ZN35HashTableTest_HSet_UpdateValue_Test8TestBodyEv
FNA:44,7,_ZN35HashTableTest_HSet_UpdateValue_TestC2Ev
FNA:44,7,_ZN35HashTableTest_HSet_UpdateValue_TestD0Ev
FNA:44,7,_ZN35HashTableTest_HSet_UpdateValue_TestD2Ev
FNL:45,646,663
FNA:45,7,_ZN23HashTableTest_HGet_Test8TestBodyEv
FNA:45,7,_ZN23HashTableTest_HGet_TestC2Ev
FNA:45,7,_ZN23HashTableTest_HGet_TestD0Ev
FNA:45,7,_ZN23HashTableTest_HGet_TestD2Ev
FNL:46,666,685
FNA:46,7,_ZN23HashTableTest_HDel_Test8TestBodyEv
FNA:46,7,_ZN23HashTableTest_HDel_TestC2Ev
FNA:46,7,_ZN23HashTableTest_HDel_TestD0Ev
FNA:46,7,_ZN23HashTableTest_HDel_TestD2Ev
FNL:47,67,83
FNA:47,7,_ZN34ArrayTest_SaveAndLoadFromFile_Test8TestBodyEv
FNA:47,7,_ZN34ArrayTest_SaveAndLoadFromFile_TestC2Ev
FNA:47,7,_ZN34ArrayTest_SaveAndLoadFromFile_TestD0Ev
FNA:47,7,_ZN34ArrayTest_SaveAndLoadFromFile_TestD2Ev
FNL:48,688,707
FNA:48,7,_ZN24HashTableTest_Clear_Test8TestBodyEv
FNA:48,7,_ZN24HashTableTest_Clear_TestC2Ev
FNA:48,7,_ZN24HashTableTest_Clear_TestD0Ev
FNA:48,7,_ZN24HashTableTest_Clear_TestD2Ev
FNL:49,7,11
FNA:49,7,_ZN37ArrayTest_AddToEnd_SingleElement_Test8TestBodyEv
FNA:49,7,_ZN37ArrayTest_AddToEnd_SingleElement_TestC2Ev
FNA:49,7,_ZN37ArrayTest_AddToEnd_SingleElement_TestD0Ev
FNA:49,7,_ZN37ArrayTest_AddToEnd_SingleElement_TestD2Ev
FNL:50,710,726
FNA:50,7,_ZN29HashTableTest_SaveToFile_Test8TestBodyEv
FNA:50,7,_ZN29HashTableTest_SaveToFile_TestC2Ev
FNA:50,7,_ZN29HashTableTest_SaveToFile_TestD0Ev
FNA:50,7,_ZN29HashTableTest_SaveToFile_TestD2Ev
FNL:51,729,753
FNA:51,7,_ZN31HashTableTest_LoadFromFile_Test8TestBodyEv
FNA:51,7,_ZN31HashTableTest_LoadFromFile_TestC2Ev
FNA:51,7,_ZN31HashTableTest_LoadFromFile_TestD0Ev
FNA:51,7,_ZN31HashTableTest_LoadFromFile_TestD2Ev
FNL:52,756,773
FNA:52,7,_ZN40HashTableTest_HashFunctionCollision_Test8TestBodyEv
FNA:52,7,_ZN40HashTableTest_HashFunctionCollision_TestC2Ev
FNA:52,7,_ZN40HashTableTest_HashFunctionCollision_TestD0Ev
FNA:52,7,_ZN40HashTableTest_HashFunctionCollision_TestD2Ev
FNL:53,777,794
FNA:53,7,_ZN19QueueTest_Push_Test8TestBodyEv
FNA:53,7,_ZN19QueueTest_Push_TestC2Ev
FNA:53,7,_ZN19QueueTest_Push_TestD0Ev
FNA:53,7,_ZN19QueueTest_Push_TestD2Ev
FNL:54,797,815
FNA:54,7,_ZN18QueueTest_Pop_Test8TestBodyEv
FNA:54,7,_ZN18QueueTest_Pop_TestC2Ev
FNA:54,7,_ZN18QueueTest_Pop_TestD0Ev
FNA:54,7,_ZN18QueueTest_Pop_TestD2Ev
FNL:55,818,831
FNA:55,7,_ZN28QueueTest_PopEmptyQueue_Test8TestBodyEv
FNA:55,7,_ZN28QueueTest_PopEmptyQueue_TestC2Ev
FNA:55,7,_ZN28QueueTest_PopEmptyQueue_TestD0Ev
FNA:55,7,_ZN28QueueTest_PopEmptyQueue_TestD2Ev
FNL:56,834,852
FNA:56,7,_ZN25QueueTest_SaveToFile_Test8TestBodyEv
FNA:56,7,_ZN25QueueTest_SaveToFile_TestC2Ev
FNA:56,7,_ZN25QueueTest_SaveToFile_TestD0Ev
FNA:56,7,_ZN25QueueTest_SaveToFile_TestD2Ev
FNL:57,855,878
FNA:57,7,_ZN27QueueTest_LoadFromFile_Test8TestBodyEv
FNA:57,7,_ZN27QueueTest_LoadFromFile_TestC2Ev
FNA:57,7,_ZN27QueueTest_LoadFromFile_TestD0Ev
FNA:57,7,_ZN27QueueTest_LoadFromFile_TestD2Ev
FNL:58,86,102
FNA:58,7,_ZN27ArrayTest_InvalidIndex_Test8TestBodyEv
FNA:58,7,_ZN27ArrayTest_InvalidIndex_TestC2Ev
FNA:58,7,_ZN27ArrayTest_InvalidIndex_TestD0Ev
FNA:58,7,_ZN27ArrayTest_InvalidIndex_TestD2Ev
FNL:59,881,898
FNA:59,7,_ZN20QueueTest_Print_Test8TestBodyEv
FNA:59,7,_ZN20QueueTest_Print_TestC2Ev
FNA:59,7,_ZN20QueueTest_Print_TestD0Ev
FNA:59,7,_ZN20QueueTest_Print_TestD2Ev
FNL:60,901,918
FNA:60,7,_ZN35SinglyLinkedListTest_AddToHead_Test8TestBodyEv
FNA:60,7,_ZN35SinglyLinkedListTest_AddToHead_TestC2Ev
FNA:60,7,_ZN35SinglyLinkedListTest_AddToHead_TestD0Ev
FNA:60,7,_ZN35SinglyLinkedListTest_AddToHead_TestD2Ev
FNL:61,921,938
FNA:61,7,_ZN35SinglyLinkedListTest_AddToTail_Test8TestBodyEv
FNA:61,7,_ZN35SinglyLinkedListTest_AddToTail_TestC2Ev
FNA:61,7,_ZN35SinglyLinkedListTest_AddToTail_TestD0Ev
FNA:61,7,_ZN35SinglyLinkedListTest_AddToTail_TestD2Ev
FNL:62,941,959
FNA:62,7,_ZN36SinglyLinkedListTest_RemoveHead_Test8TestBodyEv
FNA:62,7,_ZN36SinglyLinkedListTest_RemoveHead_TestC2Ev
FNA:62,7,_ZN36SinglyLinkedListTest_RemoveHead_TestD0Ev
FNA:62,7,_ZN36SinglyLinkedListTest_RemoveHead_TestD2Ev
FNL:63,962,980
FNA:63,7,_ZN36SinglyLinkedListTest_RemoveTail_Test8TestBodyEv
FNA:63,7,_ZN36SinglyLinkedListTest_RemoveTail_TestC2Ev
FNA:63,7,_ZN36SinglyLinkedListTest_RemoveTail_TestD0Ev
FNA:63,7,_ZN36SinglyLinkedListTest_RemoveTail_TestD2Ev
FNL:64,983,1001
FNA:64,7,_ZN39SinglyLinkedListTest_RemoveByValue_Test8TestBodyEv
FNA:64,7,_ZN39SinglyLinkedListTest_RemoveByValue_TestC2Ev
FNA:64,7,_ZN39SinglyLinkedListTest_RemoveByValue_TestD0Ev
FNA:64,7,_ZN39SinglyLinkedListTest_RemoveByValue_TestD2Ev
FNF:65
FNH:65
DA:7,28
DA:8,7
DA:9,7
DA:10,7
DA:11,7
DA:14,28
DA:15,7
DA:16,7
DA:17,7
DA:18,7
DA:21,28
DA:22,7
DA:23,7
DA:24,7
DA:25,7
DA:28,28
DA:29,7
DA:30,7
DA:31,7
DA:32,7
DA:33,7
DA:36,28
DA:37,7
DA:38,7
DA:39,7
DA:40,7
DA:43,28
DA:44,7
DA:45,7
DA:46,7
DA:47,7
DA:48,7
DA:51,28
DA:52,7
DA:53,14
DA:54,7
DA:55,7
DA:56,7
DA:59,28
DA:60,7
DA:61,14
DA:62,7
DA:63,7
DA:64,7
DA:67,28
DA:68,7
DA:69,14
DA:70,14
DA:72,7
DA:73,7
DA:76,7
DA:77,7
DA:78,7
DA:79,7
DA:82,7
DA:83,7
DA:86,28
DA:87,7
DA:88,7
DA:90,7
DA:91,7
DA:94,7
DA:97,7
DA:98,7
DA:99,7
DA:101,7
DA:102,7
DA:105,28
DA:106,7
DA:107,14
DA:108,7
DA:110,7
DA:111,7
DA:114,7
DA:117,7
DA:118,7
DA:119,7
DA:121,7
DA:122,7
DA:125,28
DA:126,7
DA:127,14
DA:128,7
DA:130,7
DA:131,7
DA:134,7
DA:135,7
DA:136,7
DA:137,7
DA:139,7
DA:140,7
DA:143,28
DA:144,7
DA:145,7
DA:147,7
DA:148,7
DA:151,7
DA:154,7
DA:155,7
DA:156,7
DA:158,7
DA:159,7
DA:162,28
DA:163,7
DA:164,14
DA:165,14
DA:166,7
DA:169,7
DA:171,7
DA:172,7
DA:175,28
DA:176,7
DA:177,14
DA:178,7
DA:180,7
DA:181,7
DA:183,7
DA:184,7
DA:185,7
DA:186,7
DA:188,7
DA:189,7
DA:192,28
DA:193,7
DA:194,7
DA:196,7
DA:197,7
DA:200,7
DA:202,7
DA:203,7
DA:204,7
DA:206,7
DA:207,7
DA:210,28
DA:211,7
DA:213,7
DA:214,7
DA:217,7
DA:219,7
DA:220,7
DA:221,7
DA:223,7
DA:224,7
DA:226,28
DA:227,7
DA:229,7
DA:230,7
DA:233,7
DA:236,7
DA:237,7
DA:238,7
DA:239,7
DA:240,7
DA:243,7
DA:245,7
DA:246,7
DA:249,28
DA:250,7
DA:251,7
DA:252,7
DA:253,7
DA:255,7
DA:256,7
DA:259,7
DA:260,7
DA:262,7
DA:263,7
DA:267,28
DA:268,7
DA:269,7
DA:270,7
DA:271,7
DA:273,7
DA:274,7
DA:277,7
DA:278,7
DA:280,7
DA:281,7
DA:284,28
DA:285,7
DA:286,7
DA:287,7
DA:288,7
DA:290,7
DA:291,7
DA:293,7
DA:295,7
DA:296,7
DA:297,7
DA:298,7
DA:300,7
DA:301,7
DA:303,28
DA:304,7
DA:305,7
DA:308,7
DA:309,7
DA:310,7
DA:312,7
DA:314,7
DA:315,7
DA:316,7
DA:318,7
DA:319,7
DA:320,7
DA:321,7
DA:323,7
DA:324,7
DA:325,7
DA:328,28
DA:329,7
DA:330,7
DA:331,7
DA:332,7
DA:334,7
DA:336,7
DA:339,7
DA:340,7
DA:341,7
DA:342,7
DA:343,7
DA:345,7
DA:346,7
DA:347,7
DA:348,28
DA:349,7
DA:350,7
DA:352,7
DA:353,7
DA:355,7
DA:356,7
DA:357,7
DA:359,7
DA:360,7
DA:363,28
DA:364,7
DA:365,7
DA:366,7
DA:367,7
DA:369,7
DA:371,7
DA:372,7
DA:374,7
DA:376,7
DA:377,7
DA:379,7
DA:380,7
DA:384,28
DA:385,7
DA:386,7
DA:387,7
DA:388,7
DA:389,7
DA:392,7
DA:393,7
DA:394,7
DA:395,7
DA:396,7
DA:397,7
DA:398,7
DA:399,7
DA:402,7
DA:405,7
DA:406,7
DA:407,7
DA:408,7
DA:410,7
DA:411,7
DA:413,28
DA:414,7
DA:415,14
DA:416,14
DA:417,7
DA:419,7
DA:420,7
DA:422,7
DA:424,7
DA:425,7
DA:426,7
DA:427,7
DA:429,7
DA:430,7
DA:433,28
DA:434,7
DA:435,14
DA:436,14
DA:437,7
DA:439,7
DA:440,7
DA:442,7
DA:444,7
DA:445,7
DA:446,7
DA:447,7
DA:449,7
DA:450,7
DA:453,28
DA:454,7
DA:455,14
DA:456,14
DA:457,7
DA:459,7
DA:461,7
DA:462,7
DA:464,7
DA:466,7
DA:467,7
DA:468,7
DA:470,7
DA:471,7
DA:474,28
DA:475,7
DA:476,14
DA:477,14
DA:478,7
DA:480,7
DA:482,7
DA:483,7
DA:485,7
DA:487,7
DA:488,7
DA:489,7
DA:491,7
DA:492,7
DA:495,28
DA:496,7
DA:497,14
DA:498,14
DA:499,14
DA:501,7
DA:503,7
DA:504,7
DA:506,7
DA:508,7
DA:509,7
DA:510,7
DA:512,7
DA:513,7
DA:516,28
DA:517,7
DA:518,14
DA:519,14
DA:520,14
DA:522,7
DA:523,7
DA:524,7
DA:526,7
DA:527,7
DA:528,7
DA:531,28
DA:532,7
DA:533,14
DA:534,14
DA:535,7
DA:537,7
DA:538,7
DA:540,7
DA:542,7
DA:543,7
DA:544,7
DA:545,7
DA:547,7
DA:548,7
DA:550,28
DA:551,7
DA:552,14
DA:553,14
DA:554,14
DA:556,7
DA:557,7
DA:560,7
DA:561,7
DA:563,14
DA:564,7
DA:565,7
DA:566,7
DA:569,7
DA:570,7
DA:573,28
DA:574,7
DA:575,7
DA:578,7
DA:579,7
DA:580,7
DA:582,7
DA:584,7
DA:585,7
DA:586,7
DA:588,7
DA:589,7
DA:590,7
DA:591,7
DA:593,7
DA:594,7
DA:595,7
DA:599,28
DA:600,7
DA:602,28
DA:603,28
DA:604,21
DA:607,7
DA:608,7
DA:610,7
DA:612,7
DA:613,7
DA:614,7
DA:615,7
DA:617,7
DA:618,7
DA:619,28
DA:620,7
DA:623,21
DA:626,7
DA:627,7
DA:630,14
DA:633,28
DA:636,7
DA:638,7
DA:639,7
DA:640,7
DA:642,7
DA:643,7
DA:646,28
DA:647,7
DA:648,28
DA:649,21
DA:652,7
DA:653,7
DA:655,14
DA:656,7
DA:658,7
DA:659,7
DA:660,7
DA:662,7
DA:663,7
DA:666,28
DA:667,7
DA:668,28
DA:669,28
DA:672,7
DA:674,7
DA:675,7
DA:677,14
DA:678,7
DA:680,7
DA:681,7
DA:682,7
DA:684,7
DA:685,7
DA:688,28
DA:689,7
DA:690,28
DA:691,21
DA:694,7
DA:696,7
DA:697,7
DA:699,14
DA:700,7
DA:702,7
DA:703,7
DA:704,7
DA:706,7
DA:707,7
DA:710,28
DA:711,7
DA:712,28
DA:713,28
DA:715,7
DA:716,7
DA:719,7
DA:720,7
DA:721,7
DA:722,7
DA:724,7
DA:725,7
DA:726,7
DA:729,28
DA:730,7
DA:731,7
DA:734,7
DA:735,7
DA:736,7
DA:737,7
DA:739,7
DA:741,7
DA:742,7
DA:744,14
DA:745,7
DA:747,7
DA:748,7
DA:749,7
DA:751,7
DA:752,7
DA:753,7
DA:756,28
DA:757,7
DA:760,28
DA:761,21
DA:763,7
DA:764,7
DA:766,7
DA:768,7
DA:769,7
DA:770,7
DA:772,7
DA:773,7
DA:777,28
DA:778,7
DA:779,14
DA:780,14
DA:781,7
DA:783,7
DA:784,7
DA:786,7
DA:788,7
DA:789,7
DA:790,7
DA:791,7
DA:793,7
DA:794,7
DA:797,28
DA:798,7
DA:799,14
DA:800,14
DA:801,7
DA:803,7
DA:805,7
DA:806,7
DA:808,7
DA:810,7
DA:811,7
DA:812,7
DA:814,7
DA:815,7
DA:818,28
DA:819,7
DA:822,7
DA:823,7
DA:825,7
DA:827,7
DA:828,7
DA:830,7
DA:831,7
DA:834,28
DA:835,7
DA:836,14
DA:837,14
DA:838,14
DA:840,7
DA:841,7
DA:844,7
DA:845,7
DA:846,7
DA:847,7
DA:848,7
DA:850,7
DA:851,7
DA:852,7
DA:855,28
DA:856,7
DA:857,7
DA:860,7
DA:861,7
DA:862,7
DA:864,7
DA:866,7
DA:867,7
DA:869,7
DA:871,7
DA:872,7
DA:873,7
DA:874,7
DA:876,7
DA:877,7
DA:878,7
DA:881,28
DA:882,7
DA:883,14
DA:884,14
DA:885,7
DA:887,7
DA:888,7
DA:890,7
DA:892,7
DA:893,7
DA:894,7
DA:895,7
DA:897,7
DA:898,7
DA:901,28
DA:902,7
DA:903,14
DA:904,14
DA:905,7
DA:907,7
DA:908,7
DA:910,7
DA:912,7
DA:913,7
DA:914,7
DA:915,7
DA:917,7
DA:918,7
DA:921,28
DA:922,7
DA:923,14
DA:924,14
DA:925,7
DA:927,7
DA:928,7
DA:930,7
DA:932,7
DA:933,7
DA:934,7
DA:935,7
DA:937,7
DA:938,7
DA:941,28
DA:942,7
DA:943,14
DA:944,14
DA:945,7
DA:947,7
DA:949,7
DA:950,7
DA:952,7
DA:954,7
DA:955,7
DA:956,7
DA:958,7
DA:959,7
DA:962,28
DA:963,7
DA:964,14
DA:965,14
DA:966,7
DA:968,7
DA:970,7
DA:971,7
DA:973,7
DA:975,7
DA:976,7
DA:977,7
DA:979,7
DA:980,7
DA:983,28
DA:984,7
DA:985,14
DA:986,14
DA:987,14
DA:989,7
DA:991,7
DA:992,7
DA:994,7
DA:996,7
DA:997,7
DA:998,7
DA:1000,7
DA:1001,7
DA:1004,28
DA:1005,7
DA:1006,14
DA:1007,14
DA:1008,14
DA:1010,7
DA:1011,7
DA:1012,7
DA:1014,7
DA:1015,7
DA:1016,7
DA:1019,28
DA:1020,7
DA:1021,14
DA:1022,14
DA:1023,7
DA:1025,7
DA:1026,7
DA:1028,7
DA:1030,7
DA:1031,7
DA:1032,7
DA:1033,7
DA:1035,7
DA:1036,7
DA:1039,28
DA:1040,7
DA:1041,14
DA:1042,14
DA:1043,14
DA:1045,7
DA:1046,7
DA:1049,7
DA:1050,7
DA:1051,7
DA:1052,7
DA:1053,7
DA:1055,7
DA:1056,7
DA:1057,7
DA:1060,28
DA:1061,7
DA:1062,7
DA:1065,7
DA:1066,7
DA:1067,7
DA:1069,7
DA:1071,7
DA:1072,7
DA:1074,7
DA:1076,7
DA:1077,7
DA:1078,7
DA:1079,7
DA:1081,7
DA:1082,7
DA:1083,7
DA:1088,28
DA:1089,7
DA:1090,14
DA:1091,14
DA:1092,7
DA:1094,7
DA:1095,7
DA:1097,7
DA:1099,7
DA:1100,7
DA:1101,7
DA:1102,7
DA:1104,7
DA:1105,7
DA:1108,28
DA:1109,7
DA:1110,14
DA:1111,14
DA:1112,7
DA:1114,7
DA:1116,7
DA:1117,7
DA:1119,7
DA:1121,7
DA:1122,7
DA:1123,7
DA:1125,7
DA:1126,7
DA:1129,28
DA:1130,7
DA:1133,7
DA:1134,7
DA:1136,7
DA:1138,7
DA:1139,7
DA:1141,7
DA:1142,7
DA:1145,28
DA:1146,7
DA:1147,14
DA:1148,14
DA:1149,14
DA:1151,7
DA:1152,7
DA:1155,7
DA:1156,7
DA:1157,7
DA:1158,7
DA:1159,7
DA:1161,7
DA:1162,7
DA:1163,7
DA:1166,28
DA:1167,7
DA:1168,7
DA:1171,7
DA:1172,7
DA:1173,7
DA:1175,7
DA:1177,7
DA:1178,7
DA:1180,7
DA:1182,7
DA:1183,7
DA:1184,7
DA:1185,7
DA:1187,7
DA:1188,7
DA:1189,7
DA:1192,28
DA:1193,7
DA:1194,14
DA:1195,14
DA:1196,7
DA:1198,7
DA:1199,7
DA:1201,7
DA:1203,7
DA:1204,7
DA:1205,7
DA:1206,7
DA:1208,7
DA:1209,7
DA:1214,7
DA:1215,7
DA:1216,7
LF:802
LH:802
end_of_record
