TN:
SF:/home/redmonster/proga/second_year/2.3laba/src/mainHeader.cpp
FN:107,130,_ZN6CBTree6insertEi
FN:133,164,_ZN6CBTree6is_CBTEv
FN:15,17,_ZN5ArrayD2Ev
FN:167,175,_ZN6CBTree10find_valueEP9tree_nodei
FN:177,183,_ZN6CBTree9get_valueEi
FN:186,216,_ZN6CBTree10find_indexEi
FN:19,30,_ZN5Array3addEiNSt7__cxx1112basic_stringIcSt11char_traitsIcESaIcEEE
FN:219,228,_ZN6CBTree9print_CBTEP9tree_nodei
FN:231,237,_ZN6CBTree7displayEv
FN:240,247,_ZN6CBTree5clearERP9tree_node
FN:250,263,_ZN6CBTree14load_from_fileERKNSt7__cxx1112basic_stringIcSt11char_traitsIcESaIcEEE
FN:266,286,_ZN6CBTree12save_to_fileERKNSt7__cxx1112basic_stringIcSt11char_traitsIcESaIcEEE
FN:288,297,_ZN16DoublyLinkedList9addToHeadENSt7__cxx1112basic_stringIcSt11char_traitsIcESaIcEEE
FN:299,308,_ZN16DoublyLinkedList9addToTailENSt7__cxx1112basic_stringIcSt11char_traitsIcESaIcEEE
FN:310,322,_ZN16DoublyLinkedList14removeFromHeadEv
FN:32,39,_ZN5Array11addToTheEndENSt7__cxx1112basic_stringIcSt11char_traitsIcESaIcEEE
FN:324,336,_ZN16DoublyLinkedList14removeFromTailEv
FN:338,355,_ZN16DoublyLinkedList13removeByValueENSt7__cxx1112basic_stringIcSt11char_traitsIcESaIcEEE
FN:357,366,_ZN16DoublyLinkedList6searchENSt7__cxx1112basic_stringIcSt11char_traitsIcESaIcEEE
FN:368,375,_ZN16DoublyLinkedList5printEv
FN:377,389,_ZN16DoublyLinkedList10saveToFileERKNSt7__cxx1112basic_stringIcSt11char_traitsIcESaIcEEE
FN:391,402,_ZN16DoublyLinkedList12loadFromFileERKNSt7__cxx1112basic_stringIcSt11char_traitsIcESaIcEEE
FN:403,409,_ZN9HashTableC2Ei
FN:41,51,_ZN5Array6removeEi
FN:412,415,_ZN9HashTableD2Ev
FN:418,436,_ZN9HashTable4hsetERKNSt7__cxx1112basic_stringIcSt11char_traitsIcESaIcEEES7_
FN:440,451,_ZNK9HashTable4hgetERKNSt7__cxx1112basic_stringIcSt11char_traitsIcESaIcEEE
FN:454,476,_ZN9HashTable4hdelERKNSt7__cxx1112basic_stringIcSt11char_traitsIcESaIcEEE
FN:479,489,_ZN9HashTable5clearEv
FN:492,498,_ZNK9HashTable12hashFunctionERKNSt7__cxx1112basic_stringIcSt11char_traitsIcESaIcEEE
FN:501,513,_ZNK9HashTable6hprintEv
FN:516,533,_ZN9HashTable12loadFromFileERKNSt7__cxx1112basic_stringIcSt11char_traitsIcESaIcEEE
FN:53,59,_ZN5Array7replaceEiNSt7__cxx1112basic_stringIcSt11char_traitsIcESaIcEEE
FN:536,550,_ZN9HashTable10saveToFileERKNSt7__cxx1112basic_stringIcSt11char_traitsIcESaIcEEE
FN:552,561,_ZN5Queue4pushENSt7__cxx1112basic_stringIcSt11char_traitsIcESaIcEEE
FN:563,575,_ZN5Queue3popEv
FN:577,584,_ZN5Queue5printEv
FN:585,597,_ZN5Queue10saveToFileERKNSt7__cxx1112basic_stringIcSt11char_traitsIcESaIcEEE
FN:599,610,_ZN5Queue12loadFromFileERKNSt7__cxx1112basic_stringIcSt11char_traitsIcESaIcEEE
FN:61,66,_ZN5Array5printEv
FN:612,617,_ZN16SinglyLinkedList9addToHeadENSt7__cxx1112basic_stringIcSt11char_traitsIcESaIcEEE
FN:619,631,_ZN16SinglyLinkedList9addToTailENSt7__cxx1112basic_stringIcSt11char_traitsIcESaIcEEE
FN:633,641,_ZN16SinglyLinkedList10removeHeadEv
FN:643,659,_ZN16SinglyLinkedList10removeTailEv
FN:661,680,_ZN16SinglyLinkedList13removeByValueENSt7__cxx1112basic_stringIcSt11char_traitsIcESaIcEEE
FN:68,70,_ZN5Array6lengthEv
FN:682,691,_ZN16SinglyLinkedList6searchENSt7__cxx1112basic_stringIcSt11char_traitsIcESaIcEEE
FN:693,700,_ZN16SinglyLinkedList5printEv
FN:702,714,_ZN16SinglyLinkedList10saveToFileERKNSt7__cxx1112basic_stringIcSt11char_traitsIcESaIcEEE
FN:717,728,_ZN16SinglyLinkedList12loadFromFileERKNSt7__cxx1112basic_stringIcSt11char_traitsIcESaIcEEE
FN:72,82,_ZN5Array10saveToFileERKNSt7__cxx1112basic_stringIcSt11char_traitsIcESaIcEEE
FN:730,735,_ZN5Stack4pushENSt7__cxx1112basic_stringIcSt11char_traitsIcESaIcEEE
FN:737,746,_ZN5Stack3popEv
FN:748,755,_ZN5Stack5printEv
FN:756,768,_ZN5Stack10saveToFileERKNSt7__cxx1112basic_stringIcSt11char_traitsIcESaIcEEE
FN:770,781,_ZN5Stack12loadFromFileERKNSt7__cxx1112basic_stringIcSt11char_traitsIcESaIcEEE
FN:84,97,_ZN5Array12loadFromFileERKNSt7__cxx1112basic_stringIcSt11char_traitsIcESaIcEEE
FN:9,13,_ZN5ArrayC2Ei
FN:99,105,_ZN5Array3getB5cxx11Ei
FNDA:391,_ZN6CBTree6insertEi
FNDA:28,_ZN6CBTree6is_CBTEv
FNDA:270,_ZN5ArrayD2Ev
FNDA:126,_ZN6CBTree10find_valueEP9tree_nodei
FNDA:28,_ZN6CBTree9get_valueEi
FNDA:28,_ZN6CBTree10find_indexEi
FNDA:75,_ZN5Array3addEiNSt7__cxx1112basic_stringIcSt11char_traitsIcESaIcEEE
FNDA:351,_ZN6CBTree9print_CBTEP9tree_nodei
FNDA:50,_ZN6CBTree7displayEv
FNDA:126,_ZN6CBTree5clearERP9tree_node
FNDA:27,_ZN6CBTree14load_from_fileERKNSt7__cxx1112basic_stringIcSt11char_traitsIcESaIcEEE
FNDA:27,_ZN6CBTree12save_to_fileERKNSt7__cxx1112basic_stringIcSt11char_traitsIcESaIcEEE
FNDA:30,_ZN16DoublyLinkedList9addToHeadENSt7__cxx1112basic_stringIcSt11char_traitsIcESaIcEEE
FNDA:219,_ZN16DoublyLinkedList9addToTailENSt7__cxx1112basic_stringIcSt11char_traitsIcESaIcEEE
FNDA:10,_ZN16DoublyLinkedList14removeFromHeadEv
FNDA:285,_ZN5Array11addToTheEndENSt7__cxx1112basic_stringIcSt11char_traitsIcESaIcEEE
FNDA:10,_ZN16DoublyLinkedList14removeFromTailEv
FNDA:10,_ZN16DoublyLinkedList13removeByValueENSt7__cxx1112basic_stringIcSt11char_traitsIcESaIcEEE
FNDA:20,_ZN16DoublyLinkedList6searchENSt7__cxx1112basic_stringIcSt11char_traitsIcESaIcEEE
FNDA:70,_ZN16DoublyLinkedList5printEv
FNDA:3,_ZN16DoublyLinkedList10saveToFileERKNSt7__cxx1112basic_stringIcSt11char_traitsIcESaIcEEE
FNDA:10,_ZN16DoublyLinkedList12loadFromFileERKNSt7__cxx1112basic_stringIcSt11char_traitsIcESaIcEEE
FNDA:39,_ZN9HashTableC2Ei
FNDA:45,_ZN5Array6removeEi
FNDA:39,_ZN9HashTableD2Ev
FNDA:83,_ZN9HashTable4hsetERKNSt7__cxx1112basic_stringIcSt11char_traitsIcESaIcEEES7_
FNDA:48,_ZNK9HashTable4hgetERKNSt7__cxx1112basic_stringIcSt11char_traitsIcESaIcEEE
FNDA:5,_ZN9HashTable4hdelERKNSt7__cxx1112basic_stringIcSt11char_traitsIcESaIcEEE
FNDA:49,_ZN9HashTable5clearEv
FNDA:136,_ZNK9HashTable12hashFunctionERKNSt7__cxx1112basic_stringIcSt11char_traitsIcESaIcEEE
FNDA:10,_ZNK9HashTable6hprintEv
FNDA:5,_ZN9HashTable12loadFromFileERKNSt7__cxx1112basic_stringIcSt11char_traitsIcESaIcEEE
FNDA:15,_ZN5Array7replaceEiNSt7__cxx1112basic_stringIcSt11char_traitsIcESaIcEEE
FNDA:5,_ZN9HashTable10saveToFileERKNSt7__cxx1112basic_stringIcSt11char_traitsIcESaIcEEE
FNDA:45,_ZN5Queue4pushENSt7__cxx1112basic_stringIcSt11char_traitsIcESaIcEEE
FNDA:6,_ZN5Queue3popEv
FNDA:12,_ZN5Queue5printEv
FNDA:3,_ZN5Queue10saveToFileERKNSt7__cxx1112basic_stringIcSt11char_traitsIcESaIcEEE
FNDA:3,_ZN5Queue12loadFromFileERKNSt7__cxx1112basic_stringIcSt11char_traitsIcESaIcEEE
FNDA:15,_ZN5Array5printEv
FNDA:6,_ZN16SinglyLinkedList9addToHeadENSt7__cxx1112basic_stringIcSt11char_traitsIcESaIcEEE
FNDA:48,_ZN16SinglyLinkedList9addToTailENSt7__cxx1112basic_stringIcSt11char_traitsIcESaIcEEE
FNDA:2,_ZN16SinglyLinkedList10removeHeadEv
FNDA:2,_ZN16SinglyLinkedList10removeTailEv
FNDA:2,_ZN16SinglyLinkedList13removeByValueENSt7__cxx1112basic_stringIcSt11char_traitsIcESaIcEEE
FNDA:15,_ZN5Array6lengthEv
FNDA:4,_ZN16SinglyLinkedList6searchENSt7__cxx1112basic_stringIcSt11char_traitsIcESaIcEEE
FNDA:14,_ZN16SinglyLinkedList5printEv
FNDA:2,_ZN16SinglyLinkedList10saveToFileERKNSt7__cxx1112basic_stringIcSt11char_traitsIcESaIcEEE
FNDA:2,_ZN16SinglyLinkedList12loadFromFileERKNSt7__cxx1112basic_stringIcSt11char_traitsIcESaIcEEE
FNDA:30,_ZN5Array10saveToFileERKNSt7__cxx1112basic_stringIcSt11char_traitsIcESaIcEEE
FNDA:15,_ZN5Stack4pushENSt7__cxx1112basic_stringIcSt11char_traitsIcESaIcEEE
FNDA:2,_ZN5Stack3popEv
FNDA:4,_ZN5Stack5printEv
FNDA:1,_ZN5Stack10saveToFileERKNSt7__cxx1112basic_stringIcSt11char_traitsIcESaIcEEE
FNDA:1,_ZN5Stack12loadFromFileERKNSt7__cxx1112basic_stringIcSt11char_traitsIcESaIcEEE
FNDA:30,_ZN5Array12loadFromFileERKNSt7__cxx1112basic_stringIcSt11char_traitsIcESaIcEEE
FNDA:270,_ZN5ArrayC2Ei
FNDA:135,_ZN5Array3getB5cxx11Ei
FNF:59
FNH:59
DA:9,270
DA:10,270
DA:11,270
DA:12,2265
DA:13,270
DA:15,270
DA:16,2265
DA:17,270
DA:19,75
DA:20,75
DA:21,15
DA:22,15
DA:25,60
DA:26,0
DA:28,60
DA:29,60
DA:32,285
DA:33,285
DA:34,15
DA:35,15
DA:37,270
DA:38,270
DA:41,45
DA:42,45
DA:43,15
DA:44,15
DA:47,45
DA:48,15
DA:50,30
DA:53,15
DA:54,15
DA:55,0
DA:56,0
DA:58,15
DA:61,15
DA:62,45
DA:63,30
DA:65,15
DA:66,15
DA:68,15
DA:69,15
DA:72,30
DA:73,30
DA:74,30
DA:75,15
DA:76,15
DA:78,45
DA:79,30
DA:81,15
DA:82,30
DA:84,30
DA:85,30
DA:86,30
DA:87,15
DA:88,15
DA:90,15
DA:91,15
DA:92,45
DA:93,30
DA:94,30
DA:96,15
DA:97,30
DA:99,135
DA:100,135
DA:101,15
DA:102,30
DA:104,120
DA:107,391
DA:108,391
DA:109,391
DA:110,108
DA:111,391
DA:113,283
DA:114,283
DA:115,350
DA:116,350
DA:117,350
DA:118,147
DA:119,147
DA:121,203
DA:123,203
DA:124,136
DA:125,136
DA:127,67
DA:133,28
DA:134,28
DA:135,14
DA:136,14
DA:139,14
DA:140,14
DA:141,14
DA:142,84
DA:143,70
DA:145,70
DA:146,28
DA:147,0
DA:149,28
DA:151,42
DA:154,70
DA:155,28
DA:156,0
DA:158,28
DA:160,42
DA:163,14
DA:167,126
DA:168,126
DA:169,56
DA:171,70
DA:172,14
DA:174,56
DA:177,28
DA:178,28
DA:179,0
DA:180,0
DA:182,28
DA:186,28
DA:187,28
DA:188,0
DA:189,14
DA:192,28
DA:193,0
DA:194,0
DA:197,28
DA:198,28
DA:199,28
DA:201,84
DA:202,70
DA:203,70
DA:204,14
DA:205,14
DA:207,56
DA:208,56
DA:209,28
DA:211,56
DA:212,28
DA:215,14
DA:219,351
DA:220,351
DA:221,156
DA:222,312
DA:223,156
DA:225,156
DA:226,156
DA:228,351
DA:231,50
DA:232,50
DA:233,11
DA:234,11
DA:236,39
DA:240,126
DA:241,126
DA:242,44
DA:243,44
DA:244,44
DA:245,44
DA:247,126
DA:250,27
DA:251,27
DA:252,27
DA:253,27
DA:254,13
DA:255,13
DA:259,84
DA:260,70
DA:262,14
DA:263,27
DA:266,27
DA:267,27
DA:268,27
DA:269,13
DA:270,13
DA:273,14
DA:274,14
DA:275,70
DA:276,42
DA:277,42
DA:278,42
DA:279,14
DA:281,42
DA:282,14
DA:285,14
DA:286,27
DA:288,30
DA:289,30
DA:290,30
DA:291,10
DA:293,20
DA:294,20
DA:295,20
DA:297,30
DA:299,219
DA:300,219
DA:301,219
DA:302,73
DA:304,146
DA:305,146
DA:306,146
DA:308,219
DA:310,10
DA:311,10
DA:312,0
DA:314,10
DA:315,10
DA:316,10
DA:317,10
DA:319,0
DA:321,10
DA:324,10
DA:325,10
DA:326,0
DA:328,10
DA:329,10
DA:330,10
DA:331,10
DA:333,0
DA:335,10
DA:338,10
DA:339,10
DA:340,20
DA:341,20
DA:342,10
DA:343,0
DA:344,10
DA:345,0
DA:347,10
DA:348,10
DA:349,10
DA:351,10
DA:353,10
DA:357,20
DA:358,20
DA:359,60
DA:360,50
DA:361,10
DA:363,40
DA:365,10
DA:368,70
DA:369,70
DA:370,250
DA:371,180
DA:372,180
DA:374,70
DA:375,70
DA:377,3
DA:378,3
DA:379,3
DA:380,0
DA:381,0
DA:383,3
DA:384,12
DA:385,9
DA:386,9
DA:388,3
DA:389,3
DA:391,10
DA:392,10
DA:393,10
DA:394,10
DA:395,40
DA:396,30
DA:398,10
DA:399,10
DA:400,0
DA:402,10
DA:403,39
DA:404,39
DA:405,39
DA:406,429
DA:407,390
DA:409,39
DA:412,39
DA:413,39
DA:414,39
DA:415,39
DA:418,83
DA:419,83
DA:420,83
DA:423,83
DA:425,4
DA:426,4
DA:427,4
DA:429,0
DA:433,79
DA:434,79
DA:435,79
DA:440,48
DA:441,48
DA:442,48
DA:443,48
DA:444,28
DA:445,28
DA:446,28
DA:448,0
DA:450,20
DA:454,5
DA:455,5
DA:456,5
DA:457,5
DA:459,5
DA:460,0
DA:461,0
DA:464,5
DA:465,0
DA:466,0
DA:469,5
DA:470,5
DA:472,0
DA:475,5
DA:479,49
DA:480,539
DA:481,490
DA:482,564
DA:483,74
DA:484,74
DA:485,74
DA:487,490
DA:489,49
DA:492,136
DA:493,136
DA:494,680
DA:495,544
DA:497,136
DA:501,10
DA:502,110
DA:503,100
DA:504,100
DA:505,25
DA:506,50
DA:507,25
DA:508,25
DA:510,25
DA:513,10
DA:516,5
DA:517,5
DA:518,5
DA:519,5
DA:521,5
DA:522,15
DA:523,10
DA:524,10
DA:525,10
DA:526,10
DA:527,10
DA:529,5
DA:530,5
DA:531,0
DA:533,5
DA:536,5
DA:537,5
DA:538,5
DA:539,55
DA:540,50
DA:541,60
DA:542,10
DA:543,10
DA:546,5
DA:548,0
DA:550,5
DA:552,45
DA:553,45
DA:554,45
DA:555,15
DA:557,30
DA:558,30
DA:560,45
DA:561,45
DA:563,6
DA:564,6
DA:565,3
DA:566,3
DA:568,3
DA:569,3
DA:570,3
DA:571,0
DA:573,3
DA:574,3
DA:577,12
DA:578,12
DA:579,45
DA:580,33
DA:581,33
DA:583,12
DA:584,12
DA:585,3
DA:586,3
DA:587,3
DA:588,0
DA:589,0
DA:591,3
DA:592,12
DA:593,9
DA:594,9
DA:596,3
DA:597,3
DA:599,3
DA:600,3
DA:601,3
DA:602,0
DA:603,0
DA:605,3
DA:606,12
DA:607,9
DA:609,3
DA:610,3
DA:612,6
DA:613,6
DA:614,6
DA:615,6
DA:616,6
DA:617,6
DA:619,48
DA:620,48
DA:621,48
DA:622,16
DA:624,32
DA:625,48
DA:626,16
DA:628,32
DA:630,48
DA:631,48
DA:633,2
DA:634,2
DA:635,0
DA:637,2
DA:638,2
DA:639,2
DA:640,2
DA:643,2
DA:644,2
DA:645,0
DA:647,2
DA:648,0
DA:649,0
DA:651,2
DA:652,4
DA:653,2
DA:655,2
DA:656,2
DA:658,2
DA:661,2
DA:662,2
DA:663,0
DA:665,2
DA:666,0
DA:667,0
DA:669,2
DA:670,2
DA:671,2
DA:672,2
DA:673,2
DA:674,2
DA:675,2
DA:676,2
DA:678,0
DA:682,4
DA:683,4
DA:684,12
DA:685,10
DA:686,2
DA:688,8
DA:690,2
DA:693,14
DA:694,14
DA:695,50
DA:696,36
DA:697,36
DA:699,14
DA:700,14
DA:702,2
DA:703,2
DA:704,2
DA:705,2
DA:706,8
DA:707,6
DA:708,6
DA:710,2
DA:712,0
DA:714,2
DA:717,2
DA:718,2
DA:719,2
DA:720,2
DA:721,8
DA:722,6
DA:724,2
DA:725,2
DA:726,0
DA:728,2
DA:730,15
DA:731,15
DA:732,15
DA:733,15
DA:734,15
DA:735,15
DA:737,2
DA:738,2
DA:739,1
DA:740,1
DA:742,1
DA:743,1
DA:744,1
DA:745,1
DA:748,4
DA:749,4
DA:750,15
DA:751,11
DA:752,11
DA:754,4
DA:755,4
DA:756,1
DA:757,1
DA:758,1
DA:759,0
DA:760,0
DA:762,1
DA:763,4
DA:764,3
DA:765,3
DA:767,1
DA:768,1
DA:770,1
DA:771,1
DA:772,1
DA:773,0
DA:774,0
DA:776,1
DA:777,4
DA:778,3
DA:780,1
DA:781,1
LF:530
LH:483
end_of_record
TN:
SF:/home/redmonster/proga/second_year/2.3laba/src/mainHeader.hpp
FN:100,101,_ZN8HashNodeC2ERKNSt7__cxx1112basic_stringIcSt11char_traitsIcESaIcEEES7_PS_
FN:127,127,_ZN6CBTreeC2Ev
FN:32,32,_ZN16SinglyLinkedListC2Ev
FN:51,51,_ZN16DoublyLinkedListC2Ev
FN:70,70,_ZN5StackC2Ev
FN:85,85,_ZN5QueueC2Ev
FNDA:79,_ZN8HashNodeC2ERKNSt7__cxx1112basic_stringIcSt11char_traitsIcESaIcEEES7_PS_
FNDA:9,_ZN6CBTreeC2Ev
FNDA:9,_ZN16SinglyLinkedListC2Ev
FNDA:8,_ZN16DoublyLinkedListC2Ev
FNDA:6,_ZN5StackC2Ev
FNDA:6,_ZN5QueueC2Ev
FNF:6
FNH:6
DA:32,9
DA:51,8
DA:70,6
DA:85,6
DA:100,79
DA:101,79
DA:127,9
LF:7
LH:7
end_of_record
TN:
SF:/home/redmonster/proga/second_year/2.3laba/src/node.hpp
FN:11,13,_ZN4NodeC2ERKNSt7__cxx1112basic_stringIcSt11char_traitsIcESaIcEEEPS_
FN:22,24,_ZN10DoublyNodeC2ERKNSt7__cxx1112basic_stringIcSt11char_traitsIcESaIcEEEPS_S8_
FN:33,33,_ZN9tree_nodeC2Ei
FN:48,48,_ZN10queue_treeC2Ev
FN:50,52,_ZN10queue_tree8is_emptyEv
FN:54,67,_ZN10queue_tree7enqueueEP9tree_node
FN:69,86,_ZN10queue_tree7dequeueEv
FNDA:114,_ZN4NodeC2ERKNSt7__cxx1112basic_stringIcSt11char_traitsIcESaIcEEEPS_
FNDA:249,_ZN10DoublyNodeC2ERKNSt7__cxx1112basic_stringIcSt11char_traitsIcESaIcEEEPS_S8_
FNDA:391,_ZN9tree_nodeC2Ei
FNDA:339,_ZN10queue_treeC2Ev
FNDA:1106,_ZN10queue_tree8is_emptyEv
FNDA:749,_ZN10queue_tree7enqueueEP9tree_node
FNDA:532,_ZN10queue_tree7dequeueEv
FNF:7
FNH:7
DA:11,114
DA:12,114
DA:13,114
DA:22,249
DA:23,249
DA:24,249
DA:33,391
DA:48,339
DA:50,1106
DA:51,1106
DA:54,749
DA:55,749
DA:56,749
DA:57,749
DA:59,749
DA:60,570
DA:62,179
DA:63,179
DA:66,749
DA:67,749
DA:69,532
DA:71,532
DA:72,0
DA:75,532
DA:76,532
DA:77,532
DA:79,532
DA:80,381
DA:83,532
DA:84,532
DA:85,532
LF:31
LH:30
end_of_record
TN:
SF:/home/redmonster/proga/second_year/2.3laba/tests/test.cpp
FN:1018,1036,_ZN36SinglyLinkedListTest_SaveToFile_Test8TestBodyEv
FN:1018,1036,_ZN36SinglyLinkedListTest_SaveToFile_TestC2Ev
FN:1018,1036,_ZN36SinglyLinkedListTest_SaveToFile_TestD0Ev
FN:1018,1036,_ZN36SinglyLinkedListTest_SaveToFile_TestD2Ev
FN:1039,1039,_ZN38SinglyLinkedListTest_LoadFromFile_Test8TestBodyEv
FN:1039,1039,_ZN38SinglyLinkedListTest_LoadFromFile_TestC2Ev
FN:1039,1039,_ZN38SinglyLinkedListTest_LoadFromFile_TestD0Ev
FN:1039,1039,_ZN38SinglyLinkedListTest_LoadFromFile_TestD2Ev
FN:105,105,_ZN29ArrayTest_AddToFullArray_Test8TestBodyEv
FN:105,105,_ZN29ArrayTest_AddToFullArray_TestC2Ev
FN:105,105,_ZN29ArrayTest_AddToFullArray_TestD0Ev
FN:105,105,_ZN29ArrayTest_AddToFullArray_TestD2Ev
FN:1067,1067,_ZN19StackTest_Push_Test8TestBodyEv
FN:1067,1067,_ZN19StackTest_Push_TestC2Ev
FN:1067,1067,_ZN19StackTest_Push_TestD0Ev
FN:1067,1067,_ZN19StackTest_Push_TestD2Ev
FN:1087,1105,_ZN18StackTest_Pop_Test8TestBodyEv
FN:1087,1105,_ZN18StackTest_Pop_TestC2Ev
FN:1087,1105,_ZN18StackTest_Pop_TestD0Ev
FN:1087,1105,_ZN18StackTest_Pop_TestD2Ev
FN:1108,1108,_ZN28StackTest_PopEmptyStack_Test8TestBodyEv
FN:1108,1108,_ZN28StackTest_PopEmptyStack_TestC2Ev
FN:1108,1108,_ZN28StackTest_PopEmptyStack_TestD0Ev
FN:1108,1108,_ZN28StackTest_PopEmptyStack_TestD2Ev
FN:1124,1124,_ZN25StackTest_SaveToFile_Test8TestBodyEv
FN:1124,1124,_ZN25StackTest_SaveToFile_TestC2Ev
FN:1124,1124,_ZN25StackTest_SaveToFile_TestD0Ev
FN:1124,1124,_ZN25StackTest_SaveToFile_TestD2Ev
FN:1145,1145,_ZN27StackTest_LoadFromFile_Test8TestBodyEv
FN:1145,1145,_ZN27StackTest_LoadFromFile_TestC2Ev
FN:1145,1145,_ZN27StackTest_LoadFromFile_TestD0Ev
FN:1145,1145,_ZN27StackTest_LoadFromFile_TestD2Ev
FN:1171,1171,_ZN20StackTest_Print_Test8TestBodyEv
FN:1171,1171,_ZN20StackTest_Print_TestC2Ev
FN:1171,1171,_ZN20StackTest_Print_TestD0Ev
FN:1171,1171,_ZN20StackTest_Print_TestD2Ev
FN:1193,1196,main
FN:125,125,_ZN41ArrayTest_AddInvalidIndexOrFullArray_Test8TestBodyEv
FN:125,125,_ZN41ArrayTest_AddInvalidIndexOrFullArray_TestC2Ev
FN:125,125,_ZN41ArrayTest_AddInvalidIndexOrFullArray_TestD0Ev
FN:125,125,_ZN41ArrayTest_AddInvalidIndexOrFullArray_TestD2Ev
FN:14,14,_ZN39ArrayTest_ConstructorAndDestructor_Test8TestBodyEv
FN:14,14,_ZN39ArrayTest_ConstructorAndDestructor_TestC2Ev
FN:14,14,_ZN39ArrayTest_ConstructorAndDestructor_TestD0Ev
FN:14,14,_ZN39ArrayTest_ConstructorAndDestructor_TestD2Ev
FN:143,143,_ZN33ArrayTest_RemoveInvalidIndex_Test8TestBodyEv
FN:143,143,_ZN33ArrayTest_RemoveInvalidIndex_TestC2Ev
FN:143,143,_ZN33ArrayTest_RemoveInvalidIndex_TestD0Ev
FN:143,143,_ZN33ArrayTest_RemoveInvalidIndex_TestD2Ev
FN:162,172,_ZN37ArrayTest_RemoveAndShiftElements_Test8TestBodyEv
FN:162,172,_ZN37ArrayTest_RemoveAndShiftElements_TestC2Ev
FN:162,172,_ZN37ArrayTest_RemoveAndShiftElements_TestD0Ev
FN:162,172,_ZN37ArrayTest_RemoveAndShiftElements_TestD2Ev
FN:175,175,_ZN20ArrayTest_Print_Test8TestBodyEv
FN:175,175,_ZN20ArrayTest_Print_TestC2Ev
FN:175,175,_ZN20ArrayTest_Print_TestD0Ev
FN:175,175,_ZN20ArrayTest_Print_TestD2Ev
FN:192,192,_ZN30ArrayTest_SaveToFileError_Test8TestBodyEv
FN:192,192,_ZN30ArrayTest_SaveToFileError_TestC2Ev
FN:192,192,_ZN30ArrayTest_SaveToFileError_TestD0Ev
FN:192,192,_ZN30ArrayTest_SaveToFileError_TestD2Ev
FN:21,21,_ZN25ArrayTest_AddByIndex_Test8TestBodyEv
FN:21,21,_ZN25ArrayTest_AddByIndex_TestC2Ev
FN:21,21,_ZN25ArrayTest_AddByIndex_TestD0Ev
FN:21,21,_ZN25ArrayTest_AddByIndex_TestD2Ev
FN:210,210,_ZN32ArrayTest_LoadFromFileError_Test8TestBodyEv
FN:210,210,_ZN32ArrayTest_LoadFromFileError_TestC2Ev
FN:210,210,_ZN32ArrayTest_LoadFromFileError_TestD0Ev
FN:210,210,_ZN32ArrayTest_LoadFromFileError_TestD2Ev
FN:226,246,_ZN21CBTreeTest_IsCBT_Test8TestBodyEv
FN:226,246,_ZN21CBTreeTest_IsCBT_TestC2Ev
FN:226,246,_ZN21CBTreeTest_IsCBT_TestD0Ev
FN:226,246,_ZN21CBTreeTest_IsCBT_TestD2Ev
FN:249,249,_ZN24CBTreeTest_GetValue_Test8TestBodyEv
FN:249,249,_ZN24CBTreeTest_GetValue_TestC2Ev
FN:249,249,_ZN24CBTreeTest_GetValue_TestD0Ev
FN:249,249,_ZN24CBTreeTest_GetValue_TestD2Ev
FN:267,267,_ZN25CBTreeTest_FindIndex_Test8TestBodyEv
FN:267,267,_ZN25CBTreeTest_FindIndex_TestC2Ev
FN:267,267,_ZN25CBTreeTest_FindIndex_TestD0Ev
FN:267,267,_ZN25CBTreeTest_FindIndex_TestD2Ev
FN:28,28,_ZN40ArrayTest_AddToEnd_MultipleElements_Test8TestBodyEv
FN:28,28,_ZN40ArrayTest_AddToEnd_MultipleElements_TestC2Ev
FN:28,28,_ZN40ArrayTest_AddToEnd_MultipleElements_TestD0Ev
FN:28,28,_ZN40ArrayTest_AddToEnd_MultipleElements_TestD2Ev
FN:284,284,_ZN23CBTreeTest_Display_Test8TestBodyEv
FN:284,284,_ZN23CBTreeTest_Display_TestC2Ev
FN:284,284,_ZN23CBTreeTest_Display_TestD0Ev
FN:284,284,_ZN23CBTreeTest_Display_TestD2Ev
FN:303,303,_ZN28CBTreeTest_LoadFromFile_Test8TestBodyEv
FN:303,303,_ZN28CBTreeTest_LoadFromFile_TestC2Ev
FN:303,303,_ZN28CBTreeTest_LoadFromFile_TestD0Ev
FN:303,303,_ZN28CBTreeTest_LoadFromFile_TestD2Ev
FN:328,328,_ZN26CBTreeTest_SaveToFile_Test8TestBodyEv
FN:328,328,_ZN26CBTreeTest_SaveToFile_TestC2Ev
FN:328,328,_ZN26CBTreeTest_SaveToFile_TestD0Ev
FN:328,328,_ZN26CBTreeTest_SaveToFile_TestD2Ev
FN:348,360,_ZN33CBTreeTest_LoadFromFileError_Test8TestBodyEv
FN:348,360,_ZN33CBTreeTest_LoadFromFileError_TestC2Ev
FN:348,360,_ZN33CBTreeTest_LoadFromFileError_TestD0Ev
FN:348,360,_ZN33CBTreeTest_LoadFromFileError_TestD2Ev
FN:36,40,_ZN25ArrayTest_GetElement_Test8TestBodyEv
FN:36,40,_ZN25ArrayTest_GetElement_TestC2Ev
FN:36,40,_ZN25ArrayTest_GetElement_TestD0Ev
FN:36,40,_ZN25ArrayTest_GetElement_TestD2Ev
FN:363,380,_ZN31CBTreeTest_SaveToFileError_Test8TestBodyEv
FN:363,380,_ZN31CBTreeTest_SaveToFileError_TestC2Ev
FN:363,380,_ZN31CBTreeTest_SaveToFileError_TestD0Ev
FN:363,380,_ZN31CBTreeTest_SaveToFileError_TestD2Ev
FN:384,411,_ZN25CBTreeTest_ClearTree_Test8TestBodyEv
FN:384,411,_ZN25CBTreeTest_ClearTree_TestC2Ev
FN:384,411,_ZN25CBTreeTest_ClearTree_TestD0Ev
FN:384,411,_ZN25CBTreeTest_ClearTree_TestD2Ev
FN:413,430,_ZN35DoublyLinkedListTest_AddToHead_Test8TestBodyEv
FN:413,430,_ZN35DoublyLinkedListTest_AddToHead_TestC2Ev
FN:413,430,_ZN35DoublyLinkedListTest_AddToHead_TestD0Ev
FN:413,430,_ZN35DoublyLinkedListTest_AddToHead_TestD2Ev
FN:43,43,_ZN28ArrayTest_RemoveElement_Test8TestBodyEv
FN:43,43,_ZN28ArrayTest_RemoveElement_TestC2Ev
FN:43,43,_ZN28ArrayTest_RemoveElement_TestD0Ev
FN:43,43,_ZN28ArrayTest_RemoveElement_TestD2Ev
FN:433,433,_ZN35DoublyLinkedListTest_AddToTail_Test8TestBodyEv
FN:433,433,_ZN35DoublyLinkedListTest_AddToTail_TestC2Ev
FN:433,433,_ZN35DoublyLinkedListTest_AddToTail_TestD0Ev
FN:433,433,_ZN35DoublyLinkedListTest_AddToTail_TestD2Ev
FN:453,471,_ZN40DoublyLinkedListTest_RemoveFromHead_Test8TestBodyEv
FN:453,471,_ZN40DoublyLinkedListTest_RemoveFromHead_TestC2Ev
FN:453,471,_ZN40DoublyLinkedListTest_RemoveFromHead_TestD0Ev
FN:453,471,_ZN40DoublyLinkedListTest_RemoveFromHead_TestD2Ev
FN:474,492,_ZN40DoublyLinkedListTest_RemoveFromTail_Test8TestBodyEv
FN:474,492,_ZN40DoublyLinkedListTest_RemoveFromTail_TestC2Ev
FN:474,492,_ZN40DoublyLinkedListTest_RemoveFromTail_TestD0Ev
FN:474,492,_ZN40DoublyLinkedListTest_RemoveFromTail_TestD2Ev
FN:495,495,_ZN39DoublyLinkedListTest_RemoveByValue_Test8TestBodyEv
FN:495,495,_ZN39DoublyLinkedListTest_RemoveByValue_TestC2Ev
FN:495,495,_ZN39DoublyLinkedListTest_RemoveByValue_TestD0Ev
FN:495,495,_ZN39DoublyLinkedListTest_RemoveByValue_TestD2Ev
FN:51,51,_ZN29ArrayTest_ReplaceElement_Test8TestBodyEv
FN:51,51,_ZN29ArrayTest_ReplaceElement_TestC2Ev
FN:51,51,_ZN29ArrayTest_ReplaceElement_TestD0Ev
FN:51,51,_ZN29ArrayTest_ReplaceElement_TestD2Ev
FN:516,516,_ZN32DoublyLinkedListTest_Search_Test8TestBodyEv
FN:516,516,_ZN32DoublyLinkedListTest_Search_TestC2Ev
FN:516,516,_ZN32DoublyLinkedListTest_Search_TestD0Ev
FN:516,516,_ZN32DoublyLinkedListTest_Search_TestD2Ev
FN:531,548,_ZN31DoublyLinkedListTest_Print_Test8TestBodyEv
FN:531,548,_ZN31DoublyLinkedListTest_Print_TestC2Ev
FN:531,548,_ZN31DoublyLinkedListTest_Print_TestD0Ev
FN:531,548,_ZN31DoublyLinkedListTest_Print_TestD2Ev
FN:552,574,_ZN38DoublyLinkedListTest_LoadFromFile_Test8TestBodyEv
FN:552,574,_ZN38DoublyLinkedListTest_LoadFromFile_TestC2Ev
FN:552,574,_ZN38DoublyLinkedListTest_LoadFromFile_TestD0Ev
FN:552,574,_ZN38DoublyLinkedListTest_LoadFromFile_TestD2Ev
FN:578,578,_ZN23HashTableTest_HSet_Test8TestBodyEv
FN:578,578,_ZN23HashTableTest_HSet_TestC2Ev
FN:578,578,_ZN23HashTableTest_HSet_TestD0Ev
FN:578,578,_ZN23HashTableTest_HSet_TestD2Ev
FN:59,59,_ZN26ArrayTest_LengthCheck_Test8TestBodyEv
FN:59,59,_ZN26ArrayTest_LengthCheck_TestC2Ev
FN:59,59,_ZN26ArrayTest_LengthCheck_TestD0Ev
FN:59,59,_ZN26ArrayTest_LengthCheck_TestD2Ev
FN:598,598,_ZN35HashTableTest_HSet_UpdateValue_Test8TestBodyEv
FN:598,598,_ZN35HashTableTest_HSet_UpdateValue_TestC2Ev
FN:598,598,_ZN35HashTableTest_HSet_UpdateValue_TestD0Ev
FN:598,598,_ZN35HashTableTest_HSet_UpdateValue_TestD2Ev
FN:625,625,_ZN23HashTableTest_HGet_Test8TestBodyEv
FN:625,625,_ZN23HashTableTest_HGet_TestC2Ev
FN:625,625,_ZN23HashTableTest_HGet_TestD0Ev
FN:625,625,_ZN23HashTableTest_HGet_TestD2Ev
FN:645,664,_ZN23HashTableTest_HDel_Test8TestBodyEv
FN:645,664,_ZN23HashTableTest_HDel_TestC2Ev
FN:645,664,_ZN23HashTableTest_HDel_TestD0Ev
FN:645,664,_ZN23HashTableTest_HDel_TestD2Ev
FN:667,686,_ZN24HashTableTest_Clear_Test8TestBodyEv
FN:667,686,_ZN24HashTableTest_Clear_TestC2Ev
FN:667,686,_ZN24HashTableTest_Clear_TestD0Ev
FN:667,686,_ZN24HashTableTest_Clear_TestD2Ev
FN:67,67,_ZN34ArrayTest_SaveAndLoadFromFile_Test8TestBodyEv
FN:67,67,_ZN34ArrayTest_SaveAndLoadFromFile_TestC2Ev
FN:67,67,_ZN34ArrayTest_SaveAndLoadFromFile_TestD0Ev
FN:67,67,_ZN34ArrayTest_SaveAndLoadFromFile_TestD2Ev
FN:689,689,_ZN29HashTableTest_SaveToFile_Test8TestBodyEv
FN:689,689,_ZN29HashTableTest_SaveToFile_TestC2Ev
FN:689,689,_ZN29HashTableTest_SaveToFile_TestD0Ev
FN:689,689,_ZN29HashTableTest_SaveToFile_TestD2Ev
FN:7,7,_ZN37ArrayTest_AddToEnd_SingleElement_Test8TestBodyEv
FN:7,7,_ZN37ArrayTest_AddToEnd_SingleElement_TestC2Ev
FN:7,7,_ZN37ArrayTest_AddToEnd_SingleElement_TestD0Ev
FN:7,7,_ZN37ArrayTest_AddToEnd_SingleElement_TestD2Ev
FN:708,732,_ZN31HashTableTest_LoadFromFile_Test8TestBodyEv
FN:708,732,_ZN31HashTableTest_LoadFromFile_TestC2Ev
FN:708,732,_ZN31HashTableTest_LoadFromFile_TestD0Ev
FN:708,732,_ZN31HashTableTest_LoadFromFile_TestD2Ev
FN:735,735,_ZN40HashTableTest_HashFunctionCollision_Test8TestBodyEv
FN:735,735,_ZN40HashTableTest_HashFunctionCollision_TestC2Ev
FN:735,735,_ZN40HashTableTest_HashFunctionCollision_TestD0Ev
FN:735,735,_ZN40HashTableTest_HashFunctionCollision_TestD2Ev
FN:756,756,_ZN19QueueTest_Push_Test8TestBodyEv
FN:756,756,_ZN19QueueTest_Push_TestC2Ev
FN:756,756,_ZN19QueueTest_Push_TestD0Ev
FN:756,756,_ZN19QueueTest_Push_TestD2Ev
FN:776,794,_ZN18QueueTest_Pop_Test8TestBodyEv
FN:776,794,_ZN18QueueTest_Pop_TestC2Ev
FN:776,794,_ZN18QueueTest_Pop_TestD0Ev
FN:776,794,_ZN18QueueTest_Pop_TestD2Ev
FN:797,797,_ZN28QueueTest_PopEmptyQueue_Test8TestBodyEv
FN:797,797,_ZN28QueueTest_PopEmptyQueue_TestC2Ev
FN:797,797,_ZN28QueueTest_PopEmptyQueue_TestD0Ev
FN:797,797,_ZN28QueueTest_PopEmptyQueue_TestD2Ev
FN:813,813,_ZN25QueueTest_SaveToFile_Test8TestBodyEv
FN:813,813,_ZN25QueueTest_SaveToFile_TestC2Ev
FN:813,813,_ZN25QueueTest_SaveToFile_TestD0Ev
FN:813,813,_ZN25QueueTest_SaveToFile_TestD2Ev
FN:834,857,_ZN27QueueTest_LoadFromFile_Test8TestBodyEv
FN:834,857,_ZN27QueueTest_LoadFromFile_TestC2Ev
FN:834,857,_ZN27QueueTest_LoadFromFile_TestD0Ev
FN:834,857,_ZN27QueueTest_LoadFromFile_TestD2Ev
FN:86,86,_ZN27ArrayTest_InvalidIndex_Test8TestBodyEv
FN:86,86,_ZN27ArrayTest_InvalidIndex_TestC2Ev
FN:86,86,_ZN27ArrayTest_InvalidIndex_TestD0Ev
FN:86,86,_ZN27ArrayTest_InvalidIndex_TestD2Ev
FN:860,877,_ZN20QueueTest_Print_Test8TestBodyEv
FN:860,877,_ZN20QueueTest_Print_TestC2Ev
FN:860,877,_ZN20QueueTest_Print_TestD0Ev
FN:860,877,_ZN20QueueTest_Print_TestD2Ev
FN:880,880,_ZN35SinglyLinkedListTest_AddToHead_Test8TestBodyEv
FN:880,880,_ZN35SinglyLinkedListTest_AddToHead_TestC2Ev
FN:880,880,_ZN35SinglyLinkedListTest_AddToHead_TestD0Ev
FN:880,880,_ZN35SinglyLinkedListTest_AddToHead_TestD2Ev
FN:900,900,_ZN35SinglyLinkedListTest_AddToTail_Test8TestBodyEv
FN:900,900,_ZN35SinglyLinkedListTest_AddToTail_TestC2Ev
FN:900,900,_ZN35SinglyLinkedListTest_AddToTail_TestD0Ev
FN:900,900,_ZN35SinglyLinkedListTest_AddToTail_TestD2Ev
FN:920,920,_ZN36SinglyLinkedListTest_RemoveHead_Test8TestBodyEv
FN:920,920,_ZN36SinglyLinkedListTest_RemoveHead_TestC2Ev
FN:920,920,_ZN36SinglyLinkedListTest_RemoveHead_TestD0Ev
FN:920,920,_ZN36SinglyLinkedListTest_RemoveHead_TestD2Ev
FN:941,941,_ZN36SinglyLinkedListTest_RemoveTail_Test8TestBodyEv
FN:941,941,_ZN36SinglyLinkedListTest_RemoveTail_TestC2Ev
FN:941,941,_ZN36SinglyLinkedListTest_RemoveTail_TestD0Ev
FN:941,941,_ZN36SinglyLinkedListTest_RemoveTail_TestD2Ev
FN:962,962,_ZN39SinglyLinkedListTest_RemoveByValue_Test8TestBodyEv
FN:962,962,_ZN39SinglyLinkedListTest_RemoveByValue_TestC2Ev
FN:962,962,_ZN39SinglyLinkedListTest_RemoveByValue_TestD0Ev
FN:962,962,_ZN39SinglyLinkedListTest_RemoveByValue_TestD2Ev
FN:983,995,_ZN32SinglyLinkedListTest_Search_Test8TestBodyEv
FN:983,995,_ZN32SinglyLinkedListTest_Search_TestC2Ev
FN:983,995,_ZN32SinglyLinkedListTest_Search_TestD0Ev
FN:983,995,_ZN32SinglyLinkedListTest_Search_TestD2Ev
FN:998,1015,_ZN31SinglyLinkedListTest_Print_Test8TestBodyEv
FN:998,1015,_ZN31SinglyLinkedListTest_Print_TestC2Ev
FN:998,1015,_ZN31SinglyLinkedListTest_Print_TestD0Ev
FN:998,1015,_ZN31SinglyLinkedListTest_Print_TestD2Ev
FNDA:1,_ZN36SinglyLinkedListTest_SaveToFile_Test8TestBodyEv
FNDA:1,_ZN36SinglyLinkedListTest_SaveToFile_TestC2Ev
FNDA:1,_ZN36SinglyLinkedListTest_SaveToFile_TestD0Ev
FNDA:1,_ZN36SinglyLinkedListTest_SaveToFile_TestD2Ev
FNDA:1,_ZN38SinglyLinkedListTest_LoadFromFile_Test8TestBodyEv
FNDA:1,_ZN38SinglyLinkedListTest_LoadFromFile_TestC2Ev
FNDA:1,_ZN38SinglyLinkedListTest_LoadFromFile_TestD0Ev
FNDA:1,_ZN38SinglyLinkedListTest_LoadFromFile_TestD2Ev
FNDA:1,_ZN29ArrayTest_AddToFullArray_Test8TestBodyEv
FNDA:1,_ZN29ArrayTest_AddToFullArray_TestC2Ev
FNDA:1,_ZN29ArrayTest_AddToFullArray_TestD0Ev
FNDA:1,_ZN29ArrayTest_AddToFullArray_TestD2Ev
FNDA:1,_ZN19StackTest_Push_Test8TestBodyEv
FNDA:1,_ZN19StackTest_Push_TestC2Ev
FNDA:1,_ZN19StackTest_Push_TestD0Ev
FNDA:1,_ZN19StackTest_Push_TestD2Ev
FNDA:1,_ZN18StackTest_Pop_Test8TestBodyEv
FNDA:1,_ZN18StackTest_Pop_TestC2Ev
FNDA:1,_ZN18StackTest_Pop_TestD0Ev
FNDA:1,_ZN18StackTest_Pop_TestD2Ev
FNDA:1,_ZN28StackTest_PopEmptyStack_Test8TestBodyEv
FNDA:1,_ZN28StackTest_PopEmptyStack_TestC2Ev
FNDA:1,_ZN28StackTest_PopEmptyStack_TestD0Ev
FNDA:1,_ZN28StackTest_PopEmptyStack_TestD2Ev
FNDA:1,_ZN25StackTest_SaveToFile_Test8TestBodyEv
FNDA:1,_ZN25StackTest_SaveToFile_TestC2Ev
FNDA:1,_ZN25StackTest_SaveToFile_TestD0Ev
FNDA:1,_ZN25StackTest_SaveToFile_TestD2Ev
FNDA:1,_ZN27StackTest_LoadFromFile_Test8TestBodyEv
FNDA:1,_ZN27StackTest_LoadFromFile_TestC2Ev
FNDA:1,_ZN27StackTest_LoadFromFile_TestD0Ev
FNDA:1,_ZN27StackTest_LoadFromFile_TestD2Ev
FNDA:1,_ZN20StackTest_Print_Test8TestBodyEv
FNDA:1,_ZN20StackTest_Print_TestC2Ev
FNDA:1,_ZN20StackTest_Print_TestD0Ev
FNDA:1,_ZN20StackTest_Print_TestD2Ev
FNDA:1,main
FNDA:1,_ZN41ArrayTest_AddInvalidIndexOrFullArray_Test8TestBodyEv
FNDA:1,_ZN41ArrayTest_AddInvalidIndexOrFullArray_TestC2Ev
FNDA:1,_ZN41ArrayTest_AddInvalidIndexOrFullArray_TestD0Ev
FNDA:1,_ZN41ArrayTest_AddInvalidIndexOrFullArray_TestD2Ev
FNDA:1,_ZN39ArrayTest_ConstructorAndDestructor_Test8TestBodyEv
FNDA:1,_ZN39ArrayTest_ConstructorAndDestructor_TestC2Ev
FNDA:1,_ZN39ArrayTest_ConstructorAndDestructor_TestD0Ev
FNDA:1,_ZN39ArrayTest_ConstructorAndDestructor_TestD2Ev
FNDA:1,_ZN33ArrayTest_RemoveInvalidIndex_Test8TestBodyEv
FNDA:1,_ZN33ArrayTest_RemoveInvalidIndex_TestC2Ev
FNDA:1,_ZN33ArrayTest_RemoveInvalidIndex_TestD0Ev
FNDA:1,_ZN33ArrayTest_RemoveInvalidIndex_TestD2Ev
FNDA:1,_ZN37ArrayTest_RemoveAndShiftElements_Test8TestBodyEv
FNDA:1,_ZN37ArrayTest_RemoveAndShiftElements_TestC2Ev
FNDA:1,_ZN37ArrayTest_RemoveAndShiftElements_TestD0Ev
FNDA:1,_ZN37ArrayTest_RemoveAndShiftElements_TestD2Ev
FNDA:1,_ZN20ArrayTest_Print_Test8TestBodyEv
FNDA:1,_ZN20ArrayTest_Print_TestC2Ev
FNDA:1,_ZN20ArrayTest_Print_TestD0Ev
FNDA:1,_ZN20ArrayTest_Print_TestD2Ev
FNDA:1,_ZN30ArrayTest_SaveToFileError_Test8TestBodyEv
FNDA:1,_ZN30ArrayTest_SaveToFileError_TestC2Ev
FNDA:1,_ZN30ArrayTest_SaveToFileError_TestD0Ev
FNDA:1,_ZN30ArrayTest_SaveToFileError_TestD2Ev
FNDA:1,_ZN25ArrayTest_AddByIndex_Test8TestBodyEv
FNDA:1,_ZN25ArrayTest_AddByIndex_TestC2Ev
FNDA:1,_ZN25ArrayTest_AddByIndex_TestD0Ev
FNDA:1,_ZN25ArrayTest_AddByIndex_TestD2Ev
FNDA:1,_ZN32ArrayTest_LoadFromFileError_Test8TestBodyEv
FNDA:1,_ZN32ArrayTest_LoadFromFileError_TestC2Ev
FNDA:1,_ZN32ArrayTest_LoadFromFileError_TestD0Ev
FNDA:1,_ZN32ArrayTest_LoadFromFileError_TestD2Ev
FNDA:1,_ZN21CBTreeTest_IsCBT_Test8TestBodyEv
FNDA:1,_ZN21CBTreeTest_IsCBT_TestC2Ev
FNDA:1,_ZN21CBTreeTest_IsCBT_TestD0Ev
FNDA:1,_ZN21CBTreeTest_IsCBT_TestD2Ev
FNDA:1,_ZN24CBTreeTest_GetValue_Test8TestBodyEv
FNDA:1,_ZN24CBTreeTest_GetValue_TestC2Ev
FNDA:1,_ZN24CBTreeTest_GetValue_TestD0Ev
FNDA:1,_ZN24CBTreeTest_GetValue_TestD2Ev
FNDA:1,_ZN25CBTreeTest_FindIndex_Test8TestBodyEv
FNDA:1,_ZN25CBTreeTest_FindIndex_TestC2Ev
FNDA:1,_ZN25CBTreeTest_FindIndex_TestD0Ev
FNDA:1,_ZN25CBTreeTest_FindIndex_TestD2Ev
FNDA:1,_ZN40ArrayTest_AddToEnd_MultipleElements_Test8TestBodyEv
FNDA:1,_ZN40ArrayTest_AddToEnd_MultipleElements_TestC2Ev
FNDA:1,_ZN40ArrayTest_AddToEnd_MultipleElements_TestD0Ev
FNDA:1,_ZN40ArrayTest_AddToEnd_MultipleElements_TestD2Ev
FNDA:1,_ZN23CBTreeTest_Display_Test8TestBodyEv
FNDA:1,_ZN23CBTreeTest_Display_TestC2Ev
FNDA:1,_ZN23CBTreeTest_Display_TestD0Ev
FNDA:1,_ZN23CBTreeTest_Display_TestD2Ev
FNDA:1,_ZN28CBTreeTest_LoadFromFile_Test8TestBodyEv
FNDA:1,_ZN28CBTreeTest_LoadFromFile_TestC2Ev
FNDA:1,_ZN28CBTreeTest_LoadFromFile_TestD0Ev
FNDA:1,_ZN28CBTreeTest_LoadFromFile_TestD2Ev
FNDA:1,_ZN26CBTreeTest_SaveToFile_Test8TestBodyEv
FNDA:1,_ZN26CBTreeTest_SaveToFile_TestC2Ev
FNDA:1,_ZN26CBTreeTest_SaveToFile_TestD0Ev
FNDA:1,_ZN26CBTreeTest_SaveToFile_TestD2Ev
FNDA:1,_ZN33CBTreeTest_LoadFromFileError_Test8TestBodyEv
FNDA:1,_ZN33CBTreeTest_LoadFromFileError_TestC2Ev
FNDA:1,_ZN33CBTreeTest_LoadFromFileError_TestD0Ev
FNDA:1,_ZN33CBTreeTest_LoadFromFileError_TestD2Ev
FNDA:1,_ZN25ArrayTest_GetElement_Test8TestBodyEv
FNDA:1,_ZN25ArrayTest_GetElement_TestC2Ev
FNDA:1,_ZN25ArrayTest_GetElement_TestD0Ev
FNDA:1,_ZN25ArrayTest_GetElement_TestD2Ev
FNDA:1,_ZN31CBTreeTest_SaveToFileError_Test8TestBodyEv
FNDA:1,_ZN31CBTreeTest_SaveToFileError_TestC2Ev
FNDA:1,_ZN31CBTreeTest_SaveToFileError_TestD0Ev
FNDA:1,_ZN31CBTreeTest_SaveToFileError_TestD2Ev
FNDA:1,_ZN25CBTreeTest_ClearTree_Test8TestBodyEv
FNDA:1,_ZN25CBTreeTest_ClearTree_TestC2Ev
FNDA:1,_ZN25CBTreeTest_ClearTree_TestD0Ev
FNDA:1,_ZN25CBTreeTest_ClearTree_TestD2Ev
FNDA:1,_ZN35DoublyLinkedListTest_AddToHead_Test8TestBodyEv
FNDA:1,_ZN35DoublyLinkedListTest_AddToHead_TestC2Ev
FNDA:1,_ZN35DoublyLinkedListTest_AddToHead_TestD0Ev
FNDA:1,_ZN35DoublyLinkedListTest_AddToHead_TestD2Ev
FNDA:1,_ZN28ArrayTest_RemoveElement_Test8TestBodyEv
FNDA:1,_ZN28ArrayTest_RemoveElement_TestC2Ev
FNDA:1,_ZN28ArrayTest_RemoveElement_TestD0Ev
FNDA:1,_ZN28ArrayTest_RemoveElement_TestD2Ev
FNDA:1,_ZN35DoublyLinkedListTest_AddToTail_Test8TestBodyEv
FNDA:1,_ZN35DoublyLinkedListTest_AddToTail_TestC2Ev
FNDA:1,_ZN35DoublyLinkedListTest_AddToTail_TestD0Ev
FNDA:1,_ZN35DoublyLinkedListTest_AddToTail_TestD2Ev
FNDA:1,_ZN40DoublyLinkedListTest_RemoveFromHead_Test8TestBodyEv
FNDA:1,_ZN40DoublyLinkedListTest_RemoveFromHead_TestC2Ev
FNDA:1,_ZN40DoublyLinkedListTest_RemoveFromHead_TestD0Ev
FNDA:1,_ZN40DoublyLinkedListTest_RemoveFromHead_TestD2Ev
FNDA:1,_ZN40DoublyLinkedListTest_RemoveFromTail_Test8TestBodyEv
FNDA:1,_ZN40DoublyLinkedListTest_RemoveFromTail_TestC2Ev
FNDA:1,_ZN40DoublyLinkedListTest_RemoveFromTail_TestD0Ev
FNDA:1,_ZN40DoublyLinkedListTest_RemoveFromTail_TestD2Ev
FNDA:1,_ZN39DoublyLinkedListTest_RemoveByValue_Test8TestBodyEv
FNDA:1,_ZN39DoublyLinkedListTest_RemoveByValue_TestC2Ev
FNDA:1,_ZN39DoublyLinkedListTest_RemoveByValue_TestD0Ev
FNDA:1,_ZN39DoublyLinkedListTest_RemoveByValue_TestD2Ev
FNDA:1,_ZN29ArrayTest_ReplaceElement_Test8TestBodyEv
FNDA:1,_ZN29ArrayTest_ReplaceElement_TestC2Ev
FNDA:1,_ZN29ArrayTest_ReplaceElement_TestD0Ev
FNDA:1,_ZN29ArrayTest_ReplaceElement_TestD2Ev
FNDA:1,_ZN32DoublyLinkedListTest_Search_Test8TestBodyEv
FNDA:1,_ZN32DoublyLinkedListTest_Search_TestC2Ev
FNDA:1,_ZN32DoublyLinkedListTest_Search_TestD0Ev
FNDA:1,_ZN32DoublyLinkedListTest_Search_TestD2Ev
FNDA:1,_ZN31DoublyLinkedListTest_Print_Test8TestBodyEv
FNDA:1,_ZN31DoublyLinkedListTest_Print_TestC2Ev
FNDA:1,_ZN31DoublyLinkedListTest_Print_TestD0Ev
FNDA:1,_ZN31DoublyLinkedListTest_Print_TestD2Ev
FNDA:1,_ZN38DoublyLinkedListTest_LoadFromFile_Test8TestBodyEv
FNDA:1,_ZN38DoublyLinkedListTest_LoadFromFile_TestC2Ev
FNDA:1,_ZN38DoublyLinkedListTest_LoadFromFile_TestD0Ev
FNDA:1,_ZN38DoublyLinkedListTest_LoadFromFile_TestD2Ev
FNDA:1,_ZN23HashTableTest_HSet_Test8TestBodyEv
FNDA:1,_ZN23HashTableTest_HSet_TestC2Ev
FNDA:1,_ZN23HashTableTest_HSet_TestD0Ev
FNDA:1,_ZN23HashTableTest_HSet_TestD2Ev
FNDA:1,_ZN26ArrayTest_LengthCheck_Test8TestBodyEv
FNDA:1,_ZN26ArrayTest_LengthCheck_TestC2Ev
FNDA:1,_ZN26ArrayTest_LengthCheck_TestD0Ev
FNDA:1,_ZN26ArrayTest_LengthCheck_TestD2Ev
FNDA:1,_ZN35HashTableTest_HSet_UpdateValue_Test8TestBodyEv
FNDA:1,_ZN35HashTableTest_HSet_UpdateValue_TestC2Ev
FNDA:1,_ZN35HashTableTest_HSet_UpdateValue_TestD0Ev
FNDA:1,_ZN35HashTableTest_HSet_UpdateValue_TestD2Ev
FNDA:1,_ZN23HashTableTest_HGet_Test8TestBodyEv
FNDA:1,_ZN23HashTableTest_HGet_TestC2Ev
FNDA:1,_ZN23HashTableTest_HGet_TestD0Ev
FNDA:1,_ZN23HashTableTest_HGet_TestD2Ev
FNDA:1,_ZN23HashTableTest_HDel_Test8TestBodyEv
FNDA:1,_ZN23HashTableTest_HDel_TestC2Ev
FNDA:1,_ZN23HashTableTest_HDel_TestD0Ev
FNDA:1,_ZN23HashTableTest_HDel_TestD2Ev
FNDA:1,_ZN24HashTableTest_Clear_Test8TestBodyEv
FNDA:1,_ZN24HashTableTest_Clear_TestC2Ev
FNDA:1,_ZN24HashTableTest_Clear_TestD0Ev
FNDA:1,_ZN24HashTableTest_Clear_TestD2Ev
FNDA:1,_ZN34ArrayTest_SaveAndLoadFromFile_Test8TestBodyEv
FNDA:1,_ZN34ArrayTest_SaveAndLoadFromFile_TestC2Ev
FNDA:1,_ZN34ArrayTest_SaveAndLoadFromFile_TestD0Ev
FNDA:1,_ZN34ArrayTest_SaveAndLoadFromFile_TestD2Ev
FNDA:1,_ZN29HashTableTest_SaveToFile_Test8TestBodyEv
FNDA:1,_ZN29HashTableTest_SaveToFile_TestC2Ev
FNDA:1,_ZN29HashTableTest_SaveToFile_TestD0Ev
FNDA:1,_ZN29HashTableTest_SaveToFile_TestD2Ev
FNDA:1,_ZN37ArrayTest_AddToEnd_SingleElement_Test8TestBodyEv
FNDA:1,_ZN37ArrayTest_AddToEnd_SingleElement_TestC2Ev
FNDA:1,_ZN37ArrayTest_AddToEnd_SingleElement_TestD0Ev
FNDA:1,_ZN37ArrayTest_AddToEnd_SingleElement_TestD2Ev
FNDA:1,_ZN31HashTableTest_LoadFromFile_Test8TestBodyEv
FNDA:1,_ZN31HashTableTest_LoadFromFile_TestC2Ev
FNDA:1,_ZN31HashTableTest_LoadFromFile_TestD0Ev
FNDA:1,_ZN31HashTableTest_LoadFromFile_TestD2Ev
FNDA:1,_ZN40HashTableTest_HashFunctionCollision_Test8TestBodyEv
FNDA:1,_ZN40HashTableTest_HashFunctionCollision_TestC2Ev
FNDA:1,_ZN40HashTableTest_HashFunctionCollision_TestD0Ev
FNDA:1,_ZN40HashTableTest_HashFunctionCollision_TestD2Ev
FNDA:1,_ZN19QueueTest_Push_Test8TestBodyEv
FNDA:1,_ZN19QueueTest_Push_TestC2Ev
FNDA:1,_ZN19QueueTest_Push_TestD0Ev
FNDA:1,_ZN19QueueTest_Push_TestD2Ev
FNDA:1,_ZN18QueueTest_Pop_Test8TestBodyEv
FNDA:1,_ZN18QueueTest_Pop_TestC2Ev
FNDA:1,_ZN18QueueTest_Pop_TestD0Ev
FNDA:1,_ZN18QueueTest_Pop_TestD2Ev
FNDA:1,_ZN28QueueTest_PopEmptyQueue_Test8TestBodyEv
FNDA:1,_ZN28QueueTest_PopEmptyQueue_TestC2Ev
FNDA:1,_ZN28QueueTest_PopEmptyQueue_TestD0Ev
FNDA:1,_ZN28QueueTest_PopEmptyQueue_TestD2Ev
FNDA:1,_ZN25QueueTest_SaveToFile_Test8TestBodyEv
FNDA:1,_ZN25QueueTest_SaveToFile_TestC2Ev
FNDA:1,_ZN25QueueTest_SaveToFile_TestD0Ev
FNDA:1,_ZN25QueueTest_SaveToFile_TestD2Ev
FNDA:1,_ZN27QueueTest_LoadFromFile_Test8TestBodyEv
FNDA:1,_ZN27QueueTest_LoadFromFile_TestC2Ev
FNDA:1,_ZN27QueueTest_LoadFromFile_TestD0Ev
FNDA:1,_ZN27QueueTest_LoadFromFile_TestD2Ev
FNDA:1,_ZN27ArrayTest_InvalidIndex_Test8TestBodyEv
FNDA:1,_ZN27ArrayTest_InvalidIndex_TestC2Ev
FNDA:1,_ZN27ArrayTest_InvalidIndex_TestD0Ev
FNDA:1,_ZN27ArrayTest_InvalidIndex_TestD2Ev
FNDA:1,_ZN20QueueTest_Print_Test8TestBodyEv
FNDA:1,_ZN20QueueTest_Print_TestC2Ev
FNDA:1,_ZN20QueueTest_Print_TestD0Ev
FNDA:1,_ZN20QueueTest_Print_TestD2Ev
FNDA:1,_ZN35SinglyLinkedListTest_AddToHead_Test8TestBodyEv
FNDA:1,_ZN35SinglyLinkedListTest_AddToHead_TestC2Ev
FNDA:1,_ZN35SinglyLinkedListTest_AddToHead_TestD0Ev
FNDA:1,_ZN35SinglyLinkedListTest_AddToHead_TestD2Ev
FNDA:1,_ZN35SinglyLinkedListTest_AddToTail_Test8TestBodyEv
FNDA:1,_ZN35SinglyLinkedListTest_AddToTail_TestC2Ev
FNDA:1,_ZN35SinglyLinkedListTest_AddToTail_TestD0Ev
FNDA:1,_ZN35SinglyLinkedListTest_AddToTail_TestD2Ev
FNDA:1,_ZN36SinglyLinkedListTest_RemoveHead_Test8TestBodyEv
FNDA:1,_ZN36SinglyLinkedListTest_RemoveHead_TestC2Ev
FNDA:1,_ZN36SinglyLinkedListTest_RemoveHead_TestD0Ev
FNDA:1,_ZN36SinglyLinkedListTest_RemoveHead_TestD2Ev
FNDA:1,_ZN36SinglyLinkedListTest_RemoveTail_Test8TestBodyEv
FNDA:1,_ZN36SinglyLinkedListTest_RemoveTail_TestC2Ev
FNDA:1,_ZN36SinglyLinkedListTest_RemoveTail_TestD0Ev
FNDA:1,_ZN36SinglyLinkedListTest_RemoveTail_TestD2Ev
FNDA:1,_ZN39SinglyLinkedListTest_RemoveByValue_Test8TestBodyEv
FNDA:1,_ZN39SinglyLinkedListTest_RemoveByValue_TestC2Ev
FNDA:1,_ZN39SinglyLinkedListTest_RemoveByValue_TestD0Ev
FNDA:1,_ZN39SinglyLinkedListTest_RemoveByValue_TestD2Ev
FNDA:1,_ZN32SinglyLinkedListTest_Search_Test8TestBodyEv
FNDA:1,_ZN32SinglyLinkedListTest_Search_TestC2Ev
FNDA:1,_ZN32SinglyLinkedListTest_Search_TestD0Ev
FNDA:1,_ZN32SinglyLinkedListTest_Search_TestD2Ev
FNDA:1,_ZN31SinglyLinkedListTest_Print_Test8TestBodyEv
FNDA:1,_ZN31SinglyLinkedListTest_Print_TestC2Ev
FNDA:1,_ZN31SinglyLinkedListTest_Print_TestD0Ev
FNDA:1,_ZN31SinglyLinkedListTest_Print_TestD2Ev
FNF:253
FNH:253
DA:7,4
DA:8,1
DA:9,1
DA:10,1
DA:11,1
DA:14,4
DA:15,1
DA:16,1
DA:17,1
DA:18,1
DA:21,4
DA:22,1
DA:23,1
DA:24,1
DA:25,1
DA:28,4
DA:29,1
DA:30,1
DA:31,1
DA:32,1
DA:33,1
DA:36,4
DA:37,1
DA:38,1
DA:39,1
DA:40,1
DA:43,4
DA:44,1
DA:45,1
DA:46,1
DA:47,1
DA:48,1
DA:51,4
DA:52,1
DA:53,2
DA:54,1
DA:55,1
DA:56,1
DA:59,4
DA:60,1
DA:61,2
DA:62,1
DA:63,1
DA:64,1
DA:67,4
DA:68,1
DA:69,2
DA:70,2
DA:72,1
DA:73,1
DA:76,1
DA:77,1
DA:78,1
DA:79,1
DA:82,1
DA:83,1
DA:86,4
DA:87,1
DA:88,1
DA:90,1
DA:91,1
DA:94,1
DA:97,1
DA:98,1
DA:99,1
DA:101,1
DA:102,1
DA:105,4
DA:106,1
DA:107,2
DA:108,1
DA:110,1
DA:111,1
DA:114,1
DA:117,1
DA:118,1
DA:119,1
DA:121,1
DA:122,1
DA:125,4
DA:126,1
DA:127,2
DA:128,1
DA:130,1
DA:131,1
DA:134,1
DA:135,1
DA:136,1
DA:137,1
DA:139,1
DA:140,1
DA:143,4
DA:144,1
DA:145,1
DA:147,1
DA:148,1
DA:151,1
DA:154,1
DA:155,1
DA:156,1
DA:158,1
DA:159,1
DA:162,4
DA:163,1
DA:164,2
DA:165,2
DA:166,1
DA:169,1
DA:171,1
DA:172,1
DA:175,4
DA:176,1
DA:177,2
DA:178,1
DA:180,1
DA:181,1
DA:183,1
DA:184,1
DA:185,1
DA:186,1
DA:188,1
DA:189,1
DA:192,4
DA:193,1
DA:194,1
DA:196,1
DA:197,1
DA:200,1
DA:202,1
DA:203,1
DA:204,1
DA:206,1
DA:207,1
DA:210,4
DA:211,1
DA:213,1
DA:214,1
DA:217,1
DA:219,1
DA:220,1
DA:221,1
DA:223,1
DA:224,1
DA:226,4
DA:227,1
DA:229,1
DA:230,1
DA:233,1
DA:236,1
DA:237,1
DA:238,1
DA:239,1
DA:240,1
DA:243,1
DA:245,1
DA:246,1
DA:249,4
DA:250,1
DA:251,1
DA:252,1
DA:253,1
DA:255,1
DA:256,1
DA:259,1
DA:260,1
DA:262,1
DA:263,1
DA:267,4
DA:268,1
DA:269,1
DA:270,1
DA:271,1
DA:273,1
DA:274,1
DA:277,1
DA:278,1
DA:280,1
DA:281,1
DA:284,4
DA:285,1
DA:286,1
DA:287,1
DA:288,1
DA:290,1
DA:291,1
DA:293,1
DA:295,1
DA:296,1
DA:297,1
DA:298,1
DA:300,1
DA:301,1
DA:303,4
DA:304,1
DA:305,1
DA:308,1
DA:309,1
DA:310,1
DA:312,1
DA:314,1
DA:315,1
DA:316,1
DA:318,1
DA:319,1
DA:320,1
DA:321,1
DA:323,1
DA:324,1
DA:325,1
DA:328,4
DA:329,1
DA:330,1
DA:331,1
DA:332,1
DA:334,1
DA:336,1
DA:339,1
DA:340,1
DA:341,1
DA:342,1
DA:343,1
DA:345,1
DA:346,1
DA:347,1
DA:348,4
DA:349,1
DA:350,1
DA:352,1
DA:353,1
DA:355,1
DA:356,1
DA:357,1
DA:359,1
DA:360,1
DA:363,4
DA:364,1
DA:365,1
DA:366,1
DA:367,1
DA:369,1
DA:371,1
DA:372,1
DA:374,1
DA:376,1
DA:377,1
DA:379,1
DA:380,1
DA:384,4
DA:385,1
DA:386,1
DA:387,1
DA:388,1
DA:389,1
DA:392,1
DA:393,1
DA:394,1
DA:395,1
DA:396,1
DA:397,1
DA:398,1
DA:399,1
DA:402,1
DA:405,1
DA:406,1
DA:407,1
DA:408,1
DA:410,1
DA:411,1
DA:413,4
DA:414,1
DA:415,2
DA:416,2
DA:417,1
DA:419,1
DA:420,1
DA:422,1
DA:424,1
DA:425,1
DA:426,1
DA:427,1
DA:429,1
DA:430,1
DA:433,4
DA:434,1
DA:435,2
DA:436,2
DA:437,1
DA:439,1
DA:440,1
DA:442,1
DA:444,1
DA:445,1
DA:446,1
DA:447,1
DA:449,1
DA:450,1
DA:453,4
DA:454,1
DA:455,2
DA:456,2
DA:457,1
DA:459,1
DA:461,1
DA:462,1
DA:464,1
DA:466,1
DA:467,1
DA:468,1
DA:470,1
DA:471,1
DA:474,4
DA:475,1
DA:476,2
DA:477,2
DA:478,1
DA:480,1
DA:482,1
DA:483,1
DA:485,1
DA:487,1
DA:488,1
DA:489,1
DA:491,1
DA:492,1
DA:495,4
DA:496,1
DA:497,2
DA:498,2
DA:499,2
DA:501,1
DA:503,1
DA:504,1
DA:506,1
DA:508,1
DA:509,1
DA:510,1
DA:512,1
DA:513,1
DA:516,4
DA:517,1
DA:518,2
DA:519,2
DA:520,2
DA:522,1
DA:523,1
DA:524,1
DA:526,1
DA:527,1
DA:528,1
DA:531,4
DA:532,1
DA:533,2
DA:534,2
DA:535,1
DA:537,1
DA:538,1
DA:540,1
DA:542,1
DA:543,1
DA:544,1
DA:545,1
DA:547,1
DA:548,1
DA:552,4
DA:553,1
DA:554,1
DA:557,1
DA:558,1
DA:559,1
DA:561,1
DA:563,1
DA:564,1
DA:565,1
DA:567,1
DA:568,1
DA:569,1
DA:570,1
DA:572,1
DA:573,1
DA:574,1
DA:578,4
DA:579,1
DA:581,4
DA:582,4
DA:583,3
DA:586,1
DA:587,1
DA:589,1
DA:591,1
DA:592,1
DA:593,1
DA:594,1
DA:596,1
DA:597,1
DA:598,4
DA:599,1
DA:602,3
DA:605,1
DA:606,1
DA:609,2
DA:612,4
DA:615,1
DA:617,1
DA:618,1
DA:619,1
DA:621,1
DA:622,1
DA:625,4
DA:626,1
DA:627,4
DA:628,3
DA:631,1
DA:632,1
DA:634,2
DA:635,1
DA:637,1
DA:638,1
DA:639,1
DA:641,1
DA:642,1
DA:645,4
DA:646,1
DA:647,4
DA:648,4
DA:651,1
DA:653,1
DA:654,1
DA:656,2
DA:657,1
DA:659,1
DA:660,1
DA:661,1
DA:663,1
DA:664,1
DA:667,4
DA:668,1
DA:669,4
DA:670,3
DA:673,1
DA:675,1
DA:676,1
DA:678,2
DA:679,1
DA:681,1
DA:682,1
DA:683,1
DA:685,1
DA:686,1
DA:689,4
DA:690,1
DA:691,4
DA:692,4
DA:694,1
DA:695,1
DA:698,1
DA:699,1
DA:700,1
DA:701,1
DA:703,1
DA:704,1
DA:705,1
DA:708,4
DA:709,1
DA:710,1
DA:713,1
DA:714,1
DA:715,1
DA:716,1
DA:718,1
DA:720,1
DA:721,1
DA:723,2
DA:724,1
DA:726,1
DA:727,1
DA:728,1
DA:730,1
DA:731,1
DA:732,1
DA:735,4
DA:736,1
DA:739,4
DA:740,3
DA:742,1
DA:743,1
DA:745,1
DA:747,1
DA:748,1
DA:749,1
DA:751,1
DA:752,1
DA:756,4
DA:757,1
DA:758,2
DA:759,2
DA:760,1
DA:762,1
DA:763,1
DA:765,1
DA:767,1
DA:768,1
DA:769,1
DA:770,1
DA:772,1
DA:773,1
DA:776,4
DA:777,1
DA:778,2
DA:779,2
DA:780,1
DA:782,1
DA:784,1
DA:785,1
DA:787,1
DA:789,1
DA:790,1
DA:791,1
DA:793,1
DA:794,1
DA:797,4
DA:798,1
DA:801,1
DA:802,1
DA:804,1
DA:806,1
DA:807,1
DA:809,1
DA:810,1
DA:813,4
DA:814,1
DA:815,2
DA:816,2
DA:817,2
DA:819,1
DA:820,1
DA:823,1
DA:824,1
DA:825,1
DA:826,1
DA:827,1
DA:829,1
DA:830,1
DA:831,1
DA:834,4
DA:835,1
DA:836,1
DA:839,1
DA:840,1
DA:841,1
DA:843,1
DA:845,1
DA:846,1
DA:848,1
DA:850,1
DA:851,1
DA:852,1
DA:853,1
DA:855,1
DA:856,1
DA:857,1
DA:860,4
DA:861,1
DA:862,2
DA:863,2
DA:864,1
DA:866,1
DA:867,1
DA:869,1
DA:871,1
DA:872,1
DA:873,1
DA:874,1
DA:876,1
DA:877,1
DA:880,4
DA:881,1
DA:882,2
DA:883,2
DA:884,1
DA:886,1
DA:887,1
DA:889,1
DA:891,1
DA:892,1
DA:893,1
DA:894,1
DA:896,1
DA:897,1
DA:900,4
DA:901,1
DA:902,2
DA:903,2
DA:904,1
DA:906,1
DA:907,1
DA:909,1
DA:911,1
DA:912,1
DA:913,1
DA:914,1
DA:916,1
DA:917,1
DA:920,4
DA:921,1
DA:922,2
DA:923,2
DA:924,1
DA:926,1
DA:928,1
DA:929,1
DA:931,1
DA:933,1
DA:934,1
DA:935,1
DA:937,1
DA:938,1
DA:941,4
DA:942,1
DA:943,2
DA:944,2
DA:945,1
DA:947,1
DA:949,1
DA:950,1
DA:952,1
DA:954,1
DA:955,1
DA:956,1
DA:958,1
DA:959,1
DA:962,4
DA:963,1
DA:964,2
DA:965,2
DA:966,2
DA:968,1
DA:970,1
DA:971,1
DA:973,1
DA:975,1
DA:976,1
DA:977,1
DA:979,1
DA:980,1
DA:983,4
DA:984,1
DA:985,2
DA:986,2
DA:987,2
DA:989,1
DA:990,1
DA:991,1
DA:993,1
DA:994,1
DA:995,1
DA:998,4
DA:999,1
DA:1000,2
DA:1001,2
DA:1002,1
DA:1004,1
DA:1005,1
DA:1007,1
DA:1009,1
DA:1010,1
DA:1011,1
DA:1012,1
DA:1014,1
DA:1015,1
DA:1018,4
DA:1019,1
DA:1020,2
DA:1021,2
DA:1022,2
DA:1024,1
DA:1025,1
DA:1028,1
DA:1029,1
DA:1030,1
DA:1031,1
DA:1032,1
DA:1034,1
DA:1035,1
DA:1036,1
DA:1039,4
DA:1040,1
DA:1041,1
DA:1044,1
DA:1045,1
DA:1046,1
DA:1048,1
DA:1050,1
DA:1051,1
DA:1053,1
DA:1055,1
DA:1056,1
DA:1057,1
DA:1058,1
DA:1060,1
DA:1061,1
DA:1062,1
DA:1067,4
DA:1068,1
DA:1069,2
DA:1070,2
DA:1071,1
DA:1073,1
DA:1074,1
DA:1076,1
DA:1078,1
DA:1079,1
DA:1080,1
DA:1081,1
DA:1083,1
DA:1084,1
DA:1087,4
DA:1088,1
DA:1089,2
DA:1090,2
DA:1091,1
DA:1093,1
DA:1095,1
DA:1096,1
DA:1098,1
DA:1100,1
DA:1101,1
DA:1102,1
DA:1104,1
DA:1105,1
DA:1108,4
DA:1109,1
DA:1112,1
DA:1113,1
DA:1115,1
DA:1117,1
DA:1118,1
DA:1120,1
DA:1121,1
DA:1124,4
DA:1125,1
DA:1126,2
DA:1127,2
DA:1128,2
DA:1130,1
DA:1131,1
DA:1134,1
DA:1135,1
DA:1136,1
DA:1137,1
DA:1138,1
DA:1140,1
DA:1141,1
DA:1142,1
DA:1145,4
DA:1146,1
DA:1147,1
DA:1150,1
DA:1151,1
DA:1152,1
DA:1154,1
DA:1156,1
DA:1157,1
DA:1159,1
DA:1161,1
DA:1162,1
DA:1163,1
DA:1164,1
DA:1166,1
DA:1167,1
DA:1168,1
DA:1171,4
DA:1172,1
DA:1173,2
DA:1174,2
DA:1175,1
DA:1177,1
DA:1178,1
DA:1180,1
DA:1182,1
DA:1183,1
DA:1184,1
DA:1185,1
DA:1187,1
DA:1188,1
DA:1193,1
DA:1194,1
DA:1195,1
LF:787
LH:787
end_of_record
